ARM GAS  C:\Users\ASUS\AppData\Local\Temp\ccstHO0r.s 			page 1


   1              		.cpu cortex-m4
   2              		.eabi_attribute 27, 1
   3              		.eabi_attribute 28, 1
   4              		.eabi_attribute 20, 1
   5              		.eabi_attribute 21, 1
   6              		.eabi_attribute 23, 3
   7              		.eabi_attribute 24, 1
   8              		.eabi_attribute 25, 1
   9              		.eabi_attribute 26, 1
  10              		.eabi_attribute 30, 1
  11              		.eabi_attribute 34, 1
  12              		.eabi_attribute 18, 4
  13              		.file	"unity.c"
  14              		.text
  15              	.Ltext0:
  16              		.cfi_sections	.debug_frame
  17              		.section	.text.UnityFloatsWithin,"ax",%progbits
  18              		.align	1
  19              		.arch armv7e-m
  20              		.syntax unified
  21              		.thumb
  22              		.thumb_func
  23              		.fpu fpv4-sp-d16
  25              	UnityFloatsWithin:
  26              	.LVL0:
  27              	.LFB157:
  28              		.file 1 "Core/test/unity.c"
   1:Core/test/unity.c **** /* =========================================================================
   2:Core/test/unity.c ****     Unity - A Test Framework for C
   3:Core/test/unity.c ****     ThrowTheSwitch.org
   4:Core/test/unity.c ****     Copyright (c) 2007-24 Mike Karlesky, Mark VanderVoord, & Greg Williams
   5:Core/test/unity.c ****     SPDX-License-Identifier: MIT
   6:Core/test/unity.c **** ========================================================================= */
   7:Core/test/unity.c **** 
   8:Core/test/unity.c **** #include "unity.h"
   9:Core/test/unity.c **** 
  10:Core/test/unity.c **** #ifndef UNITY_PROGMEM
  11:Core/test/unity.c **** #define UNITY_PROGMEM
  12:Core/test/unity.c **** #endif
  13:Core/test/unity.c **** 
  14:Core/test/unity.c **** /* If omitted from header, declare overrideable prototypes here so they're ready for use */
  15:Core/test/unity.c **** #ifdef UNITY_OMIT_OUTPUT_CHAR_HEADER_DECLARATION
  16:Core/test/unity.c **** void UNITY_OUTPUT_CHAR(int);
  17:Core/test/unity.c **** #endif
  18:Core/test/unity.c **** 
  19:Core/test/unity.c **** /* Helpful macros for us to use here in Assert functions */
  20:Core/test/unity.c **** #define UNITY_FAIL_AND_BAIL         do { Unity.CurrentTestFailed  = 1; UNITY_OUTPUT_FLUSH(); TEST_A
  21:Core/test/unity.c **** #define UNITY_IGNORE_AND_BAIL       do { Unity.CurrentTestIgnored = 1; UNITY_OUTPUT_FLUSH(); TEST_A
  22:Core/test/unity.c **** #define RETURN_IF_FAIL_OR_IGNORE    do { if (Unity.CurrentTestFailed || Unity.CurrentTestIgnored) {
  23:Core/test/unity.c **** 
  24:Core/test/unity.c **** struct UNITY_STORAGE_T Unity;
  25:Core/test/unity.c **** 
  26:Core/test/unity.c **** #ifdef UNITY_OUTPUT_COLOR
  27:Core/test/unity.c **** const char UNITY_PROGMEM UnityStrOk[]                            = "\033[42mOK\033[0m";
  28:Core/test/unity.c **** const char UNITY_PROGMEM UnityStrPass[]                          = "\033[42mPASS\033[0m";
  29:Core/test/unity.c **** const char UNITY_PROGMEM UnityStrFail[]                          = "\033[41mFAIL\033[0m";
  30:Core/test/unity.c **** const char UNITY_PROGMEM UnityStrIgnore[]                        = "\033[43mIGNORE\033[0m";
ARM GAS  C:\Users\ASUS\AppData\Local\Temp\ccstHO0r.s 			page 2


  31:Core/test/unity.c **** #else
  32:Core/test/unity.c **** const char UNITY_PROGMEM UnityStrOk[]                            = "OK";
  33:Core/test/unity.c **** const char UNITY_PROGMEM UnityStrPass[]                          = "PASS";
  34:Core/test/unity.c **** const char UNITY_PROGMEM UnityStrFail[]                          = "FAIL";
  35:Core/test/unity.c **** const char UNITY_PROGMEM UnityStrIgnore[]                        = "IGNORE";
  36:Core/test/unity.c **** #endif
  37:Core/test/unity.c **** static const char UNITY_PROGMEM UnityStrNull[]                   = "NULL";
  38:Core/test/unity.c **** static const char UNITY_PROGMEM UnityStrSpacer[]                 = ". ";
  39:Core/test/unity.c **** static const char UNITY_PROGMEM UnityStrExpected[]               = " Expected ";
  40:Core/test/unity.c **** static const char UNITY_PROGMEM UnityStrWas[]                    = " Was ";
  41:Core/test/unity.c **** static const char UNITY_PROGMEM UnityStrGt[]                     = " to be greater than ";
  42:Core/test/unity.c **** static const char UNITY_PROGMEM UnityStrLt[]                     = " to be less than ";
  43:Core/test/unity.c **** static const char UNITY_PROGMEM UnityStrOrEqual[]                = "or equal to ";
  44:Core/test/unity.c **** static const char UNITY_PROGMEM UnityStrNotEqual[]               = " to be not equal to ";
  45:Core/test/unity.c **** static const char UNITY_PROGMEM UnityStrElement[]                = " Element ";
  46:Core/test/unity.c **** static const char UNITY_PROGMEM UnityStrByte[]                   = " Byte ";
  47:Core/test/unity.c **** static const char UNITY_PROGMEM UnityStrMemory[]                 = " Memory Mismatch.";
  48:Core/test/unity.c **** static const char UNITY_PROGMEM UnityStrDelta[]                  = " Values Not Within Delta ";
  49:Core/test/unity.c **** static const char UNITY_PROGMEM UnityStrPointless[]              = " You Asked Me To Compare Nothin
  50:Core/test/unity.c **** static const char UNITY_PROGMEM UnityStrNullPointerForExpected[] = " Expected pointer to be NULL";
  51:Core/test/unity.c **** static const char UNITY_PROGMEM UnityStrNullPointerForActual[]   = " Actual pointer was NULL";
  52:Core/test/unity.c **** #ifndef UNITY_EXCLUDE_FLOAT
  53:Core/test/unity.c **** static const char UNITY_PROGMEM UnityStrNot[]                    = "Not ";
  54:Core/test/unity.c **** static const char UNITY_PROGMEM UnityStrInf[]                    = "Infinity";
  55:Core/test/unity.c **** static const char UNITY_PROGMEM UnityStrNegInf[]                 = "Negative Infinity";
  56:Core/test/unity.c **** static const char UNITY_PROGMEM UnityStrNaN[]                    = "NaN";
  57:Core/test/unity.c **** static const char UNITY_PROGMEM UnityStrDet[]                    = "Determinate";
  58:Core/test/unity.c **** static const char UNITY_PROGMEM UnityStrInvalidFloatTrait[]      = "Invalid Float Trait";
  59:Core/test/unity.c **** #endif
  60:Core/test/unity.c **** const char UNITY_PROGMEM UnityStrErrShorthand[]                  = "Unity Shorthand Support Disable
  61:Core/test/unity.c **** const char UNITY_PROGMEM UnityStrErrFloat[]                      = "Unity Floating Point Disabled";
  62:Core/test/unity.c **** const char UNITY_PROGMEM UnityStrErrDouble[]                     = "Unity Double Precision Disabled
  63:Core/test/unity.c **** const char UNITY_PROGMEM UnityStrErr64[]                         = "Unity 64-bit Support Disabled";
  64:Core/test/unity.c **** static const char UNITY_PROGMEM UnityStrBreaker[]                = "-----------------------";
  65:Core/test/unity.c **** static const char UNITY_PROGMEM UnityStrResultsTests[]           = " Tests ";
  66:Core/test/unity.c **** static const char UNITY_PROGMEM UnityStrResultsFailures[]        = " Failures ";
  67:Core/test/unity.c **** static const char UNITY_PROGMEM UnityStrResultsIgnored[]         = " Ignored ";
  68:Core/test/unity.c **** #ifndef UNITY_EXCLUDE_DETAILS
  69:Core/test/unity.c **** static const char UNITY_PROGMEM UnityStrDetail1Name[]            = UNITY_DETAIL1_NAME " ";
  70:Core/test/unity.c **** static const char UNITY_PROGMEM UnityStrDetail2Name[]            = " " UNITY_DETAIL2_NAME " ";
  71:Core/test/unity.c **** #endif
  72:Core/test/unity.c **** /*-----------------------------------------------
  73:Core/test/unity.c ****  * Pretty Printers & Test Result Output Handlers
  74:Core/test/unity.c ****  *-----------------------------------------------*/
  75:Core/test/unity.c **** 
  76:Core/test/unity.c **** /*-----------------------------------------------*/
  77:Core/test/unity.c **** /* Local helper function to print characters. */
  78:Core/test/unity.c **** static void UnityPrintChar(const char* pch)
  79:Core/test/unity.c **** {
  80:Core/test/unity.c ****     /* printable characters plus CR & LF are printed */
  81:Core/test/unity.c ****     if ((*pch <= 126) && (*pch >= 32))
  82:Core/test/unity.c ****     {
  83:Core/test/unity.c ****         UNITY_OUTPUT_CHAR(*pch);
  84:Core/test/unity.c ****     }
  85:Core/test/unity.c ****     /* write escaped carriage returns */
  86:Core/test/unity.c ****     else if (*pch == 13)
  87:Core/test/unity.c ****     {
ARM GAS  C:\Users\ASUS\AppData\Local\Temp\ccstHO0r.s 			page 3


  88:Core/test/unity.c ****         UNITY_OUTPUT_CHAR('\\');
  89:Core/test/unity.c ****         UNITY_OUTPUT_CHAR('r');
  90:Core/test/unity.c ****     }
  91:Core/test/unity.c ****     /* write escaped line feeds */
  92:Core/test/unity.c ****     else if (*pch == 10)
  93:Core/test/unity.c ****     {
  94:Core/test/unity.c ****         UNITY_OUTPUT_CHAR('\\');
  95:Core/test/unity.c ****         UNITY_OUTPUT_CHAR('n');
  96:Core/test/unity.c ****     }
  97:Core/test/unity.c ****     /* unprintable characters are shown as codes */
  98:Core/test/unity.c ****     else
  99:Core/test/unity.c ****     {
 100:Core/test/unity.c ****         UNITY_OUTPUT_CHAR('\\');
 101:Core/test/unity.c ****         UNITY_OUTPUT_CHAR('x');
 102:Core/test/unity.c ****         UnityPrintNumberHex((UNITY_UINT)*pch, 2);
 103:Core/test/unity.c ****     }
 104:Core/test/unity.c **** }
 105:Core/test/unity.c **** 
 106:Core/test/unity.c **** /*-----------------------------------------------*/
 107:Core/test/unity.c **** /* Local helper function to print ANSI escape strings e.g. "\033[42m". */
 108:Core/test/unity.c **** #ifdef UNITY_OUTPUT_COLOR
 109:Core/test/unity.c **** static UNITY_UINT UnityPrintAnsiEscapeString(const char* string)
 110:Core/test/unity.c **** {
 111:Core/test/unity.c ****     const char* pch = string;
 112:Core/test/unity.c ****     UNITY_UINT count = 0;
 113:Core/test/unity.c **** 
 114:Core/test/unity.c ****     while (*pch && (*pch != 'm'))
 115:Core/test/unity.c ****     {
 116:Core/test/unity.c ****         UNITY_OUTPUT_CHAR(*pch);
 117:Core/test/unity.c ****         pch++;
 118:Core/test/unity.c ****         count++;
 119:Core/test/unity.c ****     }
 120:Core/test/unity.c ****     UNITY_OUTPUT_CHAR('m');
 121:Core/test/unity.c ****     count++;
 122:Core/test/unity.c **** 
 123:Core/test/unity.c ****     return count;
 124:Core/test/unity.c **** }
 125:Core/test/unity.c **** #endif
 126:Core/test/unity.c **** 
 127:Core/test/unity.c **** /*-----------------------------------------------*/
 128:Core/test/unity.c **** void UnityPrint(const char* string)
 129:Core/test/unity.c **** {
 130:Core/test/unity.c ****     const char* pch = string;
 131:Core/test/unity.c **** 
 132:Core/test/unity.c ****     if (pch != NULL)
 133:Core/test/unity.c ****     {
 134:Core/test/unity.c ****         while (*pch)
 135:Core/test/unity.c ****         {
 136:Core/test/unity.c **** #ifdef UNITY_OUTPUT_COLOR
 137:Core/test/unity.c ****             /* print ANSI escape code */
 138:Core/test/unity.c ****             if ((*pch == 27) && (*(pch + 1) == '['))
 139:Core/test/unity.c ****             {
 140:Core/test/unity.c ****                 pch += UnityPrintAnsiEscapeString(pch);
 141:Core/test/unity.c ****                 continue;
 142:Core/test/unity.c ****             }
 143:Core/test/unity.c **** #endif
 144:Core/test/unity.c ****             UnityPrintChar(pch);
ARM GAS  C:\Users\ASUS\AppData\Local\Temp\ccstHO0r.s 			page 4


 145:Core/test/unity.c ****             pch++;
 146:Core/test/unity.c ****         }
 147:Core/test/unity.c ****     }
 148:Core/test/unity.c **** }
 149:Core/test/unity.c **** /*-----------------------------------------------*/
 150:Core/test/unity.c **** void UnityPrintLen(const char* string, const UNITY_UINT32 length)
 151:Core/test/unity.c **** {
 152:Core/test/unity.c ****     const char* pch = string;
 153:Core/test/unity.c **** 
 154:Core/test/unity.c ****     if (pch != NULL)
 155:Core/test/unity.c ****     {
 156:Core/test/unity.c ****         while (*pch && ((UNITY_UINT32)(pch - string) < length))
 157:Core/test/unity.c ****         {
 158:Core/test/unity.c ****             /* printable characters plus CR & LF are printed */
 159:Core/test/unity.c ****             if ((*pch <= 126) && (*pch >= 32))
 160:Core/test/unity.c ****             {
 161:Core/test/unity.c ****                 UNITY_OUTPUT_CHAR(*pch);
 162:Core/test/unity.c ****             }
 163:Core/test/unity.c ****             /* write escaped carriage returns */
 164:Core/test/unity.c ****             else if (*pch == 13)
 165:Core/test/unity.c ****             {
 166:Core/test/unity.c ****                 UNITY_OUTPUT_CHAR('\\');
 167:Core/test/unity.c ****                 UNITY_OUTPUT_CHAR('r');
 168:Core/test/unity.c ****             }
 169:Core/test/unity.c ****             /* write escaped line feeds */
 170:Core/test/unity.c ****             else if (*pch == 10)
 171:Core/test/unity.c ****             {
 172:Core/test/unity.c ****                 UNITY_OUTPUT_CHAR('\\');
 173:Core/test/unity.c ****                 UNITY_OUTPUT_CHAR('n');
 174:Core/test/unity.c ****             }
 175:Core/test/unity.c ****             /* unprintable characters are shown as codes */
 176:Core/test/unity.c ****             else
 177:Core/test/unity.c ****             {
 178:Core/test/unity.c ****                 UNITY_OUTPUT_CHAR('\\');
 179:Core/test/unity.c ****                 UNITY_OUTPUT_CHAR('x');
 180:Core/test/unity.c ****                 UnityPrintNumberHex((UNITY_UINT)*pch, 2);
 181:Core/test/unity.c ****             }
 182:Core/test/unity.c ****             pch++;
 183:Core/test/unity.c ****         }
 184:Core/test/unity.c ****     }
 185:Core/test/unity.c **** }
 186:Core/test/unity.c **** 
 187:Core/test/unity.c **** /*-----------------------------------------------*/
 188:Core/test/unity.c **** void UnityPrintNumberByStyle(const UNITY_INT number, const UNITY_DISPLAY_STYLE_T style)
 189:Core/test/unity.c **** {
 190:Core/test/unity.c ****     if ((style & UNITY_DISPLAY_RANGE_INT) == UNITY_DISPLAY_RANGE_INT)
 191:Core/test/unity.c ****     {
 192:Core/test/unity.c ****         if (style == UNITY_DISPLAY_STYLE_CHAR)
 193:Core/test/unity.c ****         {
 194:Core/test/unity.c ****             /* printable characters plus CR & LF are printed */
 195:Core/test/unity.c ****             UNITY_OUTPUT_CHAR('\'');
 196:Core/test/unity.c ****             if ((number <= 126) && (number >= 32))
 197:Core/test/unity.c ****             {
 198:Core/test/unity.c ****                 UNITY_OUTPUT_CHAR((int)number);
 199:Core/test/unity.c ****             }
 200:Core/test/unity.c ****             /* write escaped carriage returns */
 201:Core/test/unity.c ****             else if (number == 13)
ARM GAS  C:\Users\ASUS\AppData\Local\Temp\ccstHO0r.s 			page 5


 202:Core/test/unity.c ****             {
 203:Core/test/unity.c ****                 UNITY_OUTPUT_CHAR('\\');
 204:Core/test/unity.c ****                 UNITY_OUTPUT_CHAR('r');
 205:Core/test/unity.c ****             }
 206:Core/test/unity.c ****             /* write escaped line feeds */
 207:Core/test/unity.c ****             else if (number == 10)
 208:Core/test/unity.c ****             {
 209:Core/test/unity.c ****                 UNITY_OUTPUT_CHAR('\\');
 210:Core/test/unity.c ****                 UNITY_OUTPUT_CHAR('n');
 211:Core/test/unity.c ****             }
 212:Core/test/unity.c ****             /* unprintable characters are shown as codes */
 213:Core/test/unity.c ****             else
 214:Core/test/unity.c ****             {
 215:Core/test/unity.c ****                 UNITY_OUTPUT_CHAR('\\');
 216:Core/test/unity.c ****                 UNITY_OUTPUT_CHAR('x');
 217:Core/test/unity.c ****                 UnityPrintNumberHex((UNITY_UINT)number, 2);
 218:Core/test/unity.c ****             }
 219:Core/test/unity.c ****             UNITY_OUTPUT_CHAR('\'');
 220:Core/test/unity.c ****         }
 221:Core/test/unity.c ****         else
 222:Core/test/unity.c ****         {
 223:Core/test/unity.c ****             UnityPrintNumber(number);
 224:Core/test/unity.c ****         }
 225:Core/test/unity.c ****     }
 226:Core/test/unity.c ****     else if ((style & UNITY_DISPLAY_RANGE_UINT) == UNITY_DISPLAY_RANGE_UINT)
 227:Core/test/unity.c ****     {
 228:Core/test/unity.c ****         UnityPrintNumberUnsigned((UNITY_UINT)number);
 229:Core/test/unity.c ****     }
 230:Core/test/unity.c ****     else
 231:Core/test/unity.c ****     {
 232:Core/test/unity.c ****         UNITY_OUTPUT_CHAR('0');
 233:Core/test/unity.c ****         UNITY_OUTPUT_CHAR('x');
 234:Core/test/unity.c ****         UnityPrintNumberHex((UNITY_UINT)number, (char)((style & 0xF) * 2));
 235:Core/test/unity.c ****     }
 236:Core/test/unity.c **** }
 237:Core/test/unity.c **** 
 238:Core/test/unity.c **** /*-----------------------------------------------*/
 239:Core/test/unity.c **** void UnityPrintNumber(const UNITY_INT number_to_print)
 240:Core/test/unity.c **** {
 241:Core/test/unity.c ****     UNITY_UINT number = (UNITY_UINT)number_to_print;
 242:Core/test/unity.c **** 
 243:Core/test/unity.c ****     if (number_to_print < 0)
 244:Core/test/unity.c ****     {
 245:Core/test/unity.c ****         /* A negative number, including MIN negative */
 246:Core/test/unity.c ****         UNITY_OUTPUT_CHAR('-');
 247:Core/test/unity.c ****         number = (~number) + 1;
 248:Core/test/unity.c ****     }
 249:Core/test/unity.c ****     UnityPrintNumberUnsigned(number);
 250:Core/test/unity.c **** }
 251:Core/test/unity.c **** 
 252:Core/test/unity.c **** /*-----------------------------------------------
 253:Core/test/unity.c ****  * basically do an itoa using as little ram as possible */
 254:Core/test/unity.c **** void UnityPrintNumberUnsigned(const UNITY_UINT number)
 255:Core/test/unity.c **** {
 256:Core/test/unity.c ****     UNITY_UINT divisor = 1;
 257:Core/test/unity.c **** 
 258:Core/test/unity.c ****     /* figure out initial divisor */
ARM GAS  C:\Users\ASUS\AppData\Local\Temp\ccstHO0r.s 			page 6


 259:Core/test/unity.c ****     while (number / divisor > 9)
 260:Core/test/unity.c ****     {
 261:Core/test/unity.c ****         divisor *= 10;
 262:Core/test/unity.c ****     }
 263:Core/test/unity.c **** 
 264:Core/test/unity.c ****     /* now mod and print, then divide divisor */
 265:Core/test/unity.c ****     do
 266:Core/test/unity.c ****     {
 267:Core/test/unity.c ****         UNITY_OUTPUT_CHAR((char)('0' + (number / divisor % 10)));
 268:Core/test/unity.c ****         divisor /= 10;
 269:Core/test/unity.c ****     } while (divisor > 0);
 270:Core/test/unity.c **** }
 271:Core/test/unity.c **** 
 272:Core/test/unity.c **** /*-----------------------------------------------*/
 273:Core/test/unity.c **** void UnityPrintNumberHex(const UNITY_UINT number, const char nibbles_to_print)
 274:Core/test/unity.c **** {
 275:Core/test/unity.c ****     int nibble;
 276:Core/test/unity.c ****     char nibbles = nibbles_to_print;
 277:Core/test/unity.c **** 
 278:Core/test/unity.c ****     if ((unsigned)nibbles > UNITY_MAX_NIBBLES)
 279:Core/test/unity.c ****     {
 280:Core/test/unity.c ****         nibbles = UNITY_MAX_NIBBLES;
 281:Core/test/unity.c ****     }
 282:Core/test/unity.c **** 
 283:Core/test/unity.c ****     while (nibbles > 0)
 284:Core/test/unity.c ****     {
 285:Core/test/unity.c ****         nibbles--;
 286:Core/test/unity.c ****         nibble = (int)(number >> (nibbles * 4)) & 0x0F;
 287:Core/test/unity.c ****         if (nibble <= 9)
 288:Core/test/unity.c ****         {
 289:Core/test/unity.c ****             UNITY_OUTPUT_CHAR((char)('0' + nibble));
 290:Core/test/unity.c ****         }
 291:Core/test/unity.c ****         else
 292:Core/test/unity.c ****         {
 293:Core/test/unity.c ****             UNITY_OUTPUT_CHAR((char)('A' - 10 + nibble));
 294:Core/test/unity.c ****         }
 295:Core/test/unity.c ****     }
 296:Core/test/unity.c **** }
 297:Core/test/unity.c **** 
 298:Core/test/unity.c **** /*-----------------------------------------------*/
 299:Core/test/unity.c **** void UnityPrintMask(const UNITY_UINT mask, const UNITY_UINT number)
 300:Core/test/unity.c **** {
 301:Core/test/unity.c ****     UNITY_UINT current_bit = (UNITY_UINT)1 << (UNITY_INT_WIDTH - 1);
 302:Core/test/unity.c ****     UNITY_INT32 i;
 303:Core/test/unity.c **** 
 304:Core/test/unity.c ****     for (i = 0; i < UNITY_INT_WIDTH; i++)
 305:Core/test/unity.c ****     {
 306:Core/test/unity.c ****         if (current_bit & mask)
 307:Core/test/unity.c ****         {
 308:Core/test/unity.c ****             if (current_bit & number)
 309:Core/test/unity.c ****             {
 310:Core/test/unity.c ****                 UNITY_OUTPUT_CHAR('1');
 311:Core/test/unity.c ****             }
 312:Core/test/unity.c ****             else
 313:Core/test/unity.c ****             {
 314:Core/test/unity.c ****                 UNITY_OUTPUT_CHAR('0');
 315:Core/test/unity.c ****             }
ARM GAS  C:\Users\ASUS\AppData\Local\Temp\ccstHO0r.s 			page 7


 316:Core/test/unity.c ****         }
 317:Core/test/unity.c ****         else
 318:Core/test/unity.c ****         {
 319:Core/test/unity.c ****             UNITY_OUTPUT_CHAR('X');
 320:Core/test/unity.c ****         }
 321:Core/test/unity.c ****         current_bit = current_bit >> 1;
 322:Core/test/unity.c ****     }
 323:Core/test/unity.c **** }
 324:Core/test/unity.c **** 
 325:Core/test/unity.c **** /*-----------------------------------------------*/
 326:Core/test/unity.c **** #ifndef UNITY_EXCLUDE_FLOAT_PRINT
 327:Core/test/unity.c **** /*
 328:Core/test/unity.c ****  * This function prints a floating-point value in a format similar to
 329:Core/test/unity.c ****  * printf("%.7g") on a single-precision machine or printf("%.9g") on a
 330:Core/test/unity.c ****  * double-precision machine.  The 7th digit won't always be totally correct
 331:Core/test/unity.c ****  * in single-precision operation (for that level of accuracy, a more
 332:Core/test/unity.c ****  * complicated algorithm would be needed).
 333:Core/test/unity.c ****  */
 334:Core/test/unity.c **** void UnityPrintFloat(const UNITY_DOUBLE input_number)
 335:Core/test/unity.c **** {
 336:Core/test/unity.c **** #ifdef UNITY_INCLUDE_DOUBLE
 337:Core/test/unity.c ****     static const int sig_digits = 9;
 338:Core/test/unity.c ****     static const UNITY_INT32 min_scaled = 100000000;
 339:Core/test/unity.c ****     static const UNITY_INT32 max_scaled = 1000000000;
 340:Core/test/unity.c **** #else
 341:Core/test/unity.c ****     static const int sig_digits = 7;
 342:Core/test/unity.c ****     static const UNITY_INT32 min_scaled = 1000000;
 343:Core/test/unity.c ****     static const UNITY_INT32 max_scaled = 10000000;
 344:Core/test/unity.c **** #endif
 345:Core/test/unity.c **** 
 346:Core/test/unity.c ****     UNITY_DOUBLE number = input_number;
 347:Core/test/unity.c **** 
 348:Core/test/unity.c ****     /* print minus sign (does not handle negative zero) */
 349:Core/test/unity.c ****     if (number < 0.0f)
 350:Core/test/unity.c ****     {
 351:Core/test/unity.c ****         UNITY_OUTPUT_CHAR('-');
 352:Core/test/unity.c ****         number = -number;
 353:Core/test/unity.c ****     }
 354:Core/test/unity.c **** 
 355:Core/test/unity.c ****     /* handle zero, NaN, and +/- infinity */
 356:Core/test/unity.c ****     if (number == 0.0f)
 357:Core/test/unity.c ****     {
 358:Core/test/unity.c ****         UnityPrint("0");
 359:Core/test/unity.c ****     }
 360:Core/test/unity.c ****     else if (UNITY_IS_NAN(number))
 361:Core/test/unity.c ****     {
 362:Core/test/unity.c ****         UnityPrint("nan");
 363:Core/test/unity.c ****     }
 364:Core/test/unity.c ****     else if (UNITY_IS_INF(number))
 365:Core/test/unity.c ****     {
 366:Core/test/unity.c ****         UnityPrint("inf");
 367:Core/test/unity.c ****     }
 368:Core/test/unity.c ****     else
 369:Core/test/unity.c ****     {
 370:Core/test/unity.c ****         UNITY_INT32 n_int = 0;
 371:Core/test/unity.c ****         UNITY_INT32 n;
 372:Core/test/unity.c ****         int         exponent = 0;
ARM GAS  C:\Users\ASUS\AppData\Local\Temp\ccstHO0r.s 			page 8


 373:Core/test/unity.c ****         int         decimals;
 374:Core/test/unity.c ****         int         digits;
 375:Core/test/unity.c ****         char        buf[16] = {0};
 376:Core/test/unity.c **** 
 377:Core/test/unity.c ****         /*
 378:Core/test/unity.c ****          * Scale up or down by powers of 10.  To minimize rounding error,
 379:Core/test/unity.c ****          * start with a factor/divisor of 10^10, which is the largest
 380:Core/test/unity.c ****          * power of 10 that can be represented exactly.  Finally, compute
 381:Core/test/unity.c ****          * (exactly) the remaining power of 10 and perform one more
 382:Core/test/unity.c ****          * multiplication or division.
 383:Core/test/unity.c ****          */
 384:Core/test/unity.c ****         if (number < 1.0f)
 385:Core/test/unity.c ****         {
 386:Core/test/unity.c ****             UNITY_DOUBLE factor = 1.0f;
 387:Core/test/unity.c **** 
 388:Core/test/unity.c ****             while (number < (UNITY_DOUBLE)max_scaled / 1e10f)  { number *= 1e10f; exponent -= 10; }
 389:Core/test/unity.c ****             while (number * factor < (UNITY_DOUBLE)min_scaled) { factor *= 10.0f; exponent--; }
 390:Core/test/unity.c **** 
 391:Core/test/unity.c ****             number *= factor;
 392:Core/test/unity.c ****         }
 393:Core/test/unity.c ****         else if (number > (UNITY_DOUBLE)max_scaled)
 394:Core/test/unity.c ****         {
 395:Core/test/unity.c ****             UNITY_DOUBLE divisor = 1.0f;
 396:Core/test/unity.c **** 
 397:Core/test/unity.c ****             while (number > (UNITY_DOUBLE)min_scaled * 1e10f)   { number  /= 1e10f; exponent += 10;
 398:Core/test/unity.c ****             while (number / divisor > (UNITY_DOUBLE)max_scaled) { divisor *= 10.0f; exponent++; }
 399:Core/test/unity.c **** 
 400:Core/test/unity.c ****             number /= divisor;
 401:Core/test/unity.c ****         }
 402:Core/test/unity.c ****         else
 403:Core/test/unity.c ****         {
 404:Core/test/unity.c ****             /*
 405:Core/test/unity.c ****              * In this range, we can split off the integer part before
 406:Core/test/unity.c ****              * doing any multiplications.  This reduces rounding error by
 407:Core/test/unity.c ****              * freeing up significant bits in the fractional part.
 408:Core/test/unity.c ****              */
 409:Core/test/unity.c ****             UNITY_DOUBLE factor = 1.0f;
 410:Core/test/unity.c ****             n_int = (UNITY_INT32)number;
 411:Core/test/unity.c ****             number -= (UNITY_DOUBLE)n_int;
 412:Core/test/unity.c **** 
 413:Core/test/unity.c ****             while (n_int < min_scaled) { n_int *= 10; factor *= 10.0f; exponent--; }
 414:Core/test/unity.c **** 
 415:Core/test/unity.c ****             number *= factor;
 416:Core/test/unity.c ****         }
 417:Core/test/unity.c **** 
 418:Core/test/unity.c ****         /* round to nearest integer */
 419:Core/test/unity.c ****         n = ((UNITY_INT32)(number + number) + 1) / 2;
 420:Core/test/unity.c **** 
 421:Core/test/unity.c **** #ifndef UNITY_ROUND_TIES_AWAY_FROM_ZERO
 422:Core/test/unity.c ****         /* round to even if exactly between two integers */
 423:Core/test/unity.c ****         if ((n & 1) && (((UNITY_DOUBLE)n - number) == 0.5f))
 424:Core/test/unity.c ****             n--;
 425:Core/test/unity.c **** #endif
 426:Core/test/unity.c **** 
 427:Core/test/unity.c ****         n += n_int;
 428:Core/test/unity.c **** 
 429:Core/test/unity.c ****         if (n >= max_scaled)
ARM GAS  C:\Users\ASUS\AppData\Local\Temp\ccstHO0r.s 			page 9


 430:Core/test/unity.c ****         {
 431:Core/test/unity.c ****             n = min_scaled;
 432:Core/test/unity.c ****             exponent++;
 433:Core/test/unity.c ****         }
 434:Core/test/unity.c **** 
 435:Core/test/unity.c ****         /* determine where to place decimal point */
 436:Core/test/unity.c ****         decimals = ((exponent <= 0) && (exponent >= -(sig_digits + 3))) ? (-exponent) : (sig_digits
 437:Core/test/unity.c ****         exponent += decimals;
 438:Core/test/unity.c **** 
 439:Core/test/unity.c ****         /* truncate trailing zeroes after decimal point */
 440:Core/test/unity.c ****         while ((decimals > 0) && ((n % 10) == 0))
 441:Core/test/unity.c ****         {
 442:Core/test/unity.c ****             n /= 10;
 443:Core/test/unity.c ****             decimals--;
 444:Core/test/unity.c ****         }
 445:Core/test/unity.c **** 
 446:Core/test/unity.c ****         /* build up buffer in reverse order */
 447:Core/test/unity.c ****         digits = 0;
 448:Core/test/unity.c ****         while ((n != 0) || (digits <= decimals))
 449:Core/test/unity.c ****         {
 450:Core/test/unity.c ****             buf[digits++] = (char)('0' + n % 10);
 451:Core/test/unity.c ****             n /= 10;
 452:Core/test/unity.c ****         }
 453:Core/test/unity.c **** 
 454:Core/test/unity.c ****         /* print out buffer (backwards) */
 455:Core/test/unity.c ****         while (digits > 0)
 456:Core/test/unity.c ****         {
 457:Core/test/unity.c ****             if (digits == decimals)
 458:Core/test/unity.c ****             {
 459:Core/test/unity.c ****                 UNITY_OUTPUT_CHAR('.');
 460:Core/test/unity.c ****             }
 461:Core/test/unity.c ****             UNITY_OUTPUT_CHAR(buf[--digits]);
 462:Core/test/unity.c ****         }
 463:Core/test/unity.c **** 
 464:Core/test/unity.c ****         /* print exponent if needed */
 465:Core/test/unity.c ****         if (exponent != 0)
 466:Core/test/unity.c ****         {
 467:Core/test/unity.c ****             UNITY_OUTPUT_CHAR('e');
 468:Core/test/unity.c **** 
 469:Core/test/unity.c ****             if (exponent < 0)
 470:Core/test/unity.c ****             {
 471:Core/test/unity.c ****                 UNITY_OUTPUT_CHAR('-');
 472:Core/test/unity.c ****                 exponent = -exponent;
 473:Core/test/unity.c ****             }
 474:Core/test/unity.c ****             else
 475:Core/test/unity.c ****             {
 476:Core/test/unity.c ****                 UNITY_OUTPUT_CHAR('+');
 477:Core/test/unity.c ****             }
 478:Core/test/unity.c **** 
 479:Core/test/unity.c ****             digits = 0;
 480:Core/test/unity.c ****             while ((exponent != 0) || (digits < 2))
 481:Core/test/unity.c ****             {
 482:Core/test/unity.c ****                 buf[digits++] = (char)('0' + exponent % 10);
 483:Core/test/unity.c ****                 exponent /= 10;
 484:Core/test/unity.c ****             }
 485:Core/test/unity.c ****             while (digits > 0)
 486:Core/test/unity.c ****             {
ARM GAS  C:\Users\ASUS\AppData\Local\Temp\ccstHO0r.s 			page 10


 487:Core/test/unity.c ****                 UNITY_OUTPUT_CHAR(buf[--digits]);
 488:Core/test/unity.c ****             }
 489:Core/test/unity.c ****         }
 490:Core/test/unity.c ****     }
 491:Core/test/unity.c **** }
 492:Core/test/unity.c **** #endif /* ! UNITY_EXCLUDE_FLOAT_PRINT */
 493:Core/test/unity.c **** 
 494:Core/test/unity.c **** /*-----------------------------------------------*/
 495:Core/test/unity.c **** static void UnityTestResultsBegin(const char* file, const UNITY_LINE_TYPE line)
 496:Core/test/unity.c **** {
 497:Core/test/unity.c **** #ifdef UNITY_OUTPUT_FOR_ECLIPSE
 498:Core/test/unity.c ****     UNITY_OUTPUT_CHAR('(');
 499:Core/test/unity.c ****     UnityPrint(file);
 500:Core/test/unity.c ****     UNITY_OUTPUT_CHAR(':');
 501:Core/test/unity.c ****     UnityPrintNumber((UNITY_INT)line);
 502:Core/test/unity.c ****     UNITY_OUTPUT_CHAR(')');
 503:Core/test/unity.c ****     UNITY_OUTPUT_CHAR(' ');
 504:Core/test/unity.c ****     UnityPrint(Unity.CurrentTestName);
 505:Core/test/unity.c ****     UNITY_OUTPUT_CHAR(':');
 506:Core/test/unity.c **** #else
 507:Core/test/unity.c **** #ifdef UNITY_OUTPUT_FOR_IAR_WORKBENCH
 508:Core/test/unity.c ****     UnityPrint("<SRCREF line=");
 509:Core/test/unity.c ****     UnityPrintNumber((UNITY_INT)line);
 510:Core/test/unity.c ****     UnityPrint(" file=\"");
 511:Core/test/unity.c ****     UnityPrint(file);
 512:Core/test/unity.c ****     UNITY_OUTPUT_CHAR('"');
 513:Core/test/unity.c ****     UNITY_OUTPUT_CHAR('>');
 514:Core/test/unity.c ****     UnityPrint(Unity.CurrentTestName);
 515:Core/test/unity.c ****     UnityPrint("</SRCREF> ");
 516:Core/test/unity.c **** #else
 517:Core/test/unity.c **** #ifdef UNITY_OUTPUT_FOR_QT_CREATOR
 518:Core/test/unity.c ****     UnityPrint("file://");
 519:Core/test/unity.c ****     UnityPrint(file);
 520:Core/test/unity.c ****     UNITY_OUTPUT_CHAR(':');
 521:Core/test/unity.c ****     UnityPrintNumber((UNITY_INT)line);
 522:Core/test/unity.c ****     UNITY_OUTPUT_CHAR(' ');
 523:Core/test/unity.c ****     UnityPrint(Unity.CurrentTestName);
 524:Core/test/unity.c ****     UNITY_OUTPUT_CHAR(':');
 525:Core/test/unity.c **** #else
 526:Core/test/unity.c ****     UnityPrint(file);
 527:Core/test/unity.c ****     UNITY_OUTPUT_CHAR(':');
 528:Core/test/unity.c ****     UnityPrintNumber((UNITY_INT)line);
 529:Core/test/unity.c ****     UNITY_OUTPUT_CHAR(':');
 530:Core/test/unity.c ****     UnityPrint(Unity.CurrentTestName);
 531:Core/test/unity.c ****     UNITY_OUTPUT_CHAR(':');
 532:Core/test/unity.c **** #endif
 533:Core/test/unity.c **** #endif
 534:Core/test/unity.c **** #endif
 535:Core/test/unity.c **** }
 536:Core/test/unity.c **** 
 537:Core/test/unity.c **** /*-----------------------------------------------*/
 538:Core/test/unity.c **** static void UnityTestResultsFailBegin(const UNITY_LINE_TYPE line)
 539:Core/test/unity.c **** {
 540:Core/test/unity.c ****     UnityTestResultsBegin(Unity.TestFile, line);
 541:Core/test/unity.c ****     UnityPrint(UnityStrFail);
 542:Core/test/unity.c ****     UNITY_OUTPUT_CHAR(':');
 543:Core/test/unity.c **** }
ARM GAS  C:\Users\ASUS\AppData\Local\Temp\ccstHO0r.s 			page 11


 544:Core/test/unity.c **** 
 545:Core/test/unity.c **** /*-----------------------------------------------*/
 546:Core/test/unity.c **** void UnityConcludeTest(void)
 547:Core/test/unity.c **** {
 548:Core/test/unity.c ****     if (Unity.CurrentTestIgnored)
 549:Core/test/unity.c ****     {
 550:Core/test/unity.c ****         Unity.TestIgnores++;
 551:Core/test/unity.c ****     }
 552:Core/test/unity.c ****     else if (!Unity.CurrentTestFailed)
 553:Core/test/unity.c ****     {
 554:Core/test/unity.c ****         UnityTestResultsBegin(Unity.TestFile, Unity.CurrentTestLineNumber);
 555:Core/test/unity.c ****         UnityPrint(UnityStrPass);
 556:Core/test/unity.c ****     }
 557:Core/test/unity.c ****     else
 558:Core/test/unity.c ****     {
 559:Core/test/unity.c ****         Unity.TestFailures++;
 560:Core/test/unity.c ****     }
 561:Core/test/unity.c **** 
 562:Core/test/unity.c ****     Unity.CurrentTestFailed = 0;
 563:Core/test/unity.c ****     Unity.CurrentTestIgnored = 0;
 564:Core/test/unity.c ****     UNITY_PRINT_EXEC_TIME();
 565:Core/test/unity.c ****     UNITY_PRINT_EOL();
 566:Core/test/unity.c ****     UNITY_FLUSH_CALL();
 567:Core/test/unity.c **** }
 568:Core/test/unity.c **** 
 569:Core/test/unity.c **** /*-----------------------------------------------*/
 570:Core/test/unity.c **** static void UnityAddMsgIfSpecified(const char* msg)
 571:Core/test/unity.c **** {
 572:Core/test/unity.c **** #ifdef UNITY_PRINT_TEST_CONTEXT
 573:Core/test/unity.c ****     UnityPrint(UnityStrSpacer);
 574:Core/test/unity.c ****     UNITY_PRINT_TEST_CONTEXT();
 575:Core/test/unity.c **** #endif
 576:Core/test/unity.c **** #ifndef UNITY_EXCLUDE_DETAILS
 577:Core/test/unity.c ****     if (Unity.CurrentDetail1)
 578:Core/test/unity.c ****     {
 579:Core/test/unity.c ****         UnityPrint(UnityStrSpacer);
 580:Core/test/unity.c ****         UnityPrint(UnityStrDetail1Name);
 581:Core/test/unity.c ****         UnityPrint(Unity.CurrentDetail1);
 582:Core/test/unity.c ****         if (Unity.CurrentDetail2)
 583:Core/test/unity.c ****         {
 584:Core/test/unity.c ****             UnityPrint(UnityStrDetail2Name);
 585:Core/test/unity.c ****             UnityPrint(Unity.CurrentDetail2);
 586:Core/test/unity.c ****         }
 587:Core/test/unity.c ****     }
 588:Core/test/unity.c **** #endif
 589:Core/test/unity.c ****     if (msg)
 590:Core/test/unity.c ****     {
 591:Core/test/unity.c ****         UnityPrint(UnityStrSpacer);
 592:Core/test/unity.c ****         UnityPrint(msg);
 593:Core/test/unity.c ****     }
 594:Core/test/unity.c **** }
 595:Core/test/unity.c **** 
 596:Core/test/unity.c **** /*-----------------------------------------------*/
 597:Core/test/unity.c **** static void UnityPrintExpectedAndActualStrings(const char* expected, const char* actual)
 598:Core/test/unity.c **** {
 599:Core/test/unity.c ****     UnityPrint(UnityStrExpected);
 600:Core/test/unity.c ****     if (expected != NULL)
ARM GAS  C:\Users\ASUS\AppData\Local\Temp\ccstHO0r.s 			page 12


 601:Core/test/unity.c ****     {
 602:Core/test/unity.c ****         UNITY_OUTPUT_CHAR('\'');
 603:Core/test/unity.c ****         UnityPrint(expected);
 604:Core/test/unity.c ****         UNITY_OUTPUT_CHAR('\'');
 605:Core/test/unity.c ****     }
 606:Core/test/unity.c ****     else
 607:Core/test/unity.c ****     {
 608:Core/test/unity.c ****         UnityPrint(UnityStrNull);
 609:Core/test/unity.c ****     }
 610:Core/test/unity.c ****     UnityPrint(UnityStrWas);
 611:Core/test/unity.c ****     if (actual != NULL)
 612:Core/test/unity.c ****     {
 613:Core/test/unity.c ****         UNITY_OUTPUT_CHAR('\'');
 614:Core/test/unity.c ****         UnityPrint(actual);
 615:Core/test/unity.c ****         UNITY_OUTPUT_CHAR('\'');
 616:Core/test/unity.c ****     }
 617:Core/test/unity.c ****     else
 618:Core/test/unity.c ****     {
 619:Core/test/unity.c ****         UnityPrint(UnityStrNull);
 620:Core/test/unity.c ****     }
 621:Core/test/unity.c **** }
 622:Core/test/unity.c **** 
 623:Core/test/unity.c **** /*-----------------------------------------------*/
 624:Core/test/unity.c **** static void UnityPrintExpectedAndActualStringsLen(const char* expected,
 625:Core/test/unity.c ****                                                   const char* actual,
 626:Core/test/unity.c ****                                                   const UNITY_UINT32 length)
 627:Core/test/unity.c **** {
 628:Core/test/unity.c ****     UnityPrint(UnityStrExpected);
 629:Core/test/unity.c ****     if (expected != NULL)
 630:Core/test/unity.c ****     {
 631:Core/test/unity.c ****         UNITY_OUTPUT_CHAR('\'');
 632:Core/test/unity.c ****         UnityPrintLen(expected, length);
 633:Core/test/unity.c ****         UNITY_OUTPUT_CHAR('\'');
 634:Core/test/unity.c ****     }
 635:Core/test/unity.c ****     else
 636:Core/test/unity.c ****     {
 637:Core/test/unity.c ****         UnityPrint(UnityStrNull);
 638:Core/test/unity.c ****     }
 639:Core/test/unity.c ****     UnityPrint(UnityStrWas);
 640:Core/test/unity.c ****     if (actual != NULL)
 641:Core/test/unity.c ****     {
 642:Core/test/unity.c ****         UNITY_OUTPUT_CHAR('\'');
 643:Core/test/unity.c ****         UnityPrintLen(actual, length);
 644:Core/test/unity.c ****         UNITY_OUTPUT_CHAR('\'');
 645:Core/test/unity.c ****     }
 646:Core/test/unity.c ****     else
 647:Core/test/unity.c ****     {
 648:Core/test/unity.c ****         UnityPrint(UnityStrNull);
 649:Core/test/unity.c ****     }
 650:Core/test/unity.c **** }
 651:Core/test/unity.c **** 
 652:Core/test/unity.c **** /*-----------------------------------------------
 653:Core/test/unity.c ****  * Assertion & Control Helpers
 654:Core/test/unity.c ****  *-----------------------------------------------*/
 655:Core/test/unity.c **** 
 656:Core/test/unity.c **** /*-----------------------------------------------*/
 657:Core/test/unity.c **** static int UnityIsOneArrayNull(UNITY_INTERNAL_PTR expected,
ARM GAS  C:\Users\ASUS\AppData\Local\Temp\ccstHO0r.s 			page 13


 658:Core/test/unity.c ****                                UNITY_INTERNAL_PTR actual,
 659:Core/test/unity.c ****                                const UNITY_LINE_TYPE lineNumber,
 660:Core/test/unity.c ****                                const char* msg)
 661:Core/test/unity.c **** {
 662:Core/test/unity.c ****     /* Both are NULL or same pointer */
 663:Core/test/unity.c ****     if (expected == actual) { return 0; }
 664:Core/test/unity.c **** 
 665:Core/test/unity.c ****     /* print and return true if just expected is NULL */
 666:Core/test/unity.c ****     if (expected == NULL)
 667:Core/test/unity.c ****     {
 668:Core/test/unity.c ****         UnityTestResultsFailBegin(lineNumber);
 669:Core/test/unity.c ****         UnityPrint(UnityStrNullPointerForExpected);
 670:Core/test/unity.c ****         UnityAddMsgIfSpecified(msg);
 671:Core/test/unity.c ****         return 1;
 672:Core/test/unity.c ****     }
 673:Core/test/unity.c **** 
 674:Core/test/unity.c ****     /* print and return true if just actual is NULL */
 675:Core/test/unity.c ****     if (actual == NULL)
 676:Core/test/unity.c ****     {
 677:Core/test/unity.c ****         UnityTestResultsFailBegin(lineNumber);
 678:Core/test/unity.c ****         UnityPrint(UnityStrNullPointerForActual);
 679:Core/test/unity.c ****         UnityAddMsgIfSpecified(msg);
 680:Core/test/unity.c ****         return 1;
 681:Core/test/unity.c ****     }
 682:Core/test/unity.c **** 
 683:Core/test/unity.c ****     return 0; /* return false if neither is NULL */
 684:Core/test/unity.c **** }
 685:Core/test/unity.c **** 
 686:Core/test/unity.c **** /*-----------------------------------------------
 687:Core/test/unity.c ****  * Assertion Functions
 688:Core/test/unity.c ****  *-----------------------------------------------*/
 689:Core/test/unity.c **** 
 690:Core/test/unity.c **** /*-----------------------------------------------*/
 691:Core/test/unity.c **** void UnityAssertBits(const UNITY_INT mask,
 692:Core/test/unity.c ****                      const UNITY_INT expected,
 693:Core/test/unity.c ****                      const UNITY_INT actual,
 694:Core/test/unity.c ****                      const char* msg,
 695:Core/test/unity.c ****                      const UNITY_LINE_TYPE lineNumber)
 696:Core/test/unity.c **** {
 697:Core/test/unity.c ****     RETURN_IF_FAIL_OR_IGNORE;
 698:Core/test/unity.c **** 
 699:Core/test/unity.c ****     if ((mask & expected) != (mask & actual))
 700:Core/test/unity.c ****     {
 701:Core/test/unity.c ****         UnityTestResultsFailBegin(lineNumber);
 702:Core/test/unity.c ****         UnityPrint(UnityStrExpected);
 703:Core/test/unity.c ****         UnityPrintMask((UNITY_UINT)mask, (UNITY_UINT)expected);
 704:Core/test/unity.c ****         UnityPrint(UnityStrWas);
 705:Core/test/unity.c ****         UnityPrintMask((UNITY_UINT)mask, (UNITY_UINT)actual);
 706:Core/test/unity.c ****         UnityAddMsgIfSpecified(msg);
 707:Core/test/unity.c ****         UNITY_FAIL_AND_BAIL;
 708:Core/test/unity.c ****     }
 709:Core/test/unity.c **** }
 710:Core/test/unity.c **** 
 711:Core/test/unity.c **** /*-----------------------------------------------*/
 712:Core/test/unity.c **** void UnityAssertEqualNumber(const UNITY_INT expected,
 713:Core/test/unity.c ****                             const UNITY_INT actual,
 714:Core/test/unity.c ****                             const char* msg,
ARM GAS  C:\Users\ASUS\AppData\Local\Temp\ccstHO0r.s 			page 14


 715:Core/test/unity.c ****                             const UNITY_LINE_TYPE lineNumber,
 716:Core/test/unity.c ****                             const UNITY_DISPLAY_STYLE_T style)
 717:Core/test/unity.c **** {
 718:Core/test/unity.c ****     RETURN_IF_FAIL_OR_IGNORE;
 719:Core/test/unity.c **** 
 720:Core/test/unity.c ****     if (expected != actual)
 721:Core/test/unity.c ****     {
 722:Core/test/unity.c ****         UnityTestResultsFailBegin(lineNumber);
 723:Core/test/unity.c ****         UnityPrint(UnityStrExpected);
 724:Core/test/unity.c ****         UnityPrintNumberByStyle(expected, style);
 725:Core/test/unity.c ****         UnityPrint(UnityStrWas);
 726:Core/test/unity.c ****         UnityPrintNumberByStyle(actual, style);
 727:Core/test/unity.c ****         UnityAddMsgIfSpecified(msg);
 728:Core/test/unity.c ****         UNITY_FAIL_AND_BAIL;
 729:Core/test/unity.c ****     }
 730:Core/test/unity.c **** }
 731:Core/test/unity.c **** 
 732:Core/test/unity.c **** /*-----------------------------------------------*/
 733:Core/test/unity.c **** void UnityAssertGreaterOrLessOrEqualNumber(const UNITY_INT threshold,
 734:Core/test/unity.c ****                                            const UNITY_INT actual,
 735:Core/test/unity.c ****                                            const UNITY_COMPARISON_T compare,
 736:Core/test/unity.c ****                                            const char *msg,
 737:Core/test/unity.c ****                                            const UNITY_LINE_TYPE lineNumber,
 738:Core/test/unity.c ****                                            const UNITY_DISPLAY_STYLE_T style)
 739:Core/test/unity.c **** {
 740:Core/test/unity.c ****     int failed = 0;
 741:Core/test/unity.c ****     RETURN_IF_FAIL_OR_IGNORE;
 742:Core/test/unity.c **** 
 743:Core/test/unity.c ****     if ((threshold == actual) && (compare & UNITY_EQUAL_TO)) { return; }
 744:Core/test/unity.c ****     if ((threshold == actual))                               { failed = 1; }
 745:Core/test/unity.c **** 
 746:Core/test/unity.c ****     if ((style & UNITY_DISPLAY_RANGE_INT) == UNITY_DISPLAY_RANGE_INT)
 747:Core/test/unity.c ****     {
 748:Core/test/unity.c ****         if ((actual > threshold) && (compare & UNITY_SMALLER_THAN)) { failed = 1; }
 749:Core/test/unity.c ****         if ((actual < threshold) && (compare & UNITY_GREATER_THAN)) { failed = 1; }
 750:Core/test/unity.c ****     }
 751:Core/test/unity.c ****     else /* UINT or HEX */
 752:Core/test/unity.c ****     {
 753:Core/test/unity.c ****         if (((UNITY_UINT)actual > (UNITY_UINT)threshold) && (compare & UNITY_SMALLER_THAN)) { faile
 754:Core/test/unity.c ****         if (((UNITY_UINT)actual < (UNITY_UINT)threshold) && (compare & UNITY_GREATER_THAN)) { faile
 755:Core/test/unity.c ****     }
 756:Core/test/unity.c **** 
 757:Core/test/unity.c ****     if (failed)
 758:Core/test/unity.c ****     {
 759:Core/test/unity.c ****         UnityTestResultsFailBegin(lineNumber);
 760:Core/test/unity.c ****         UnityPrint(UnityStrExpected);
 761:Core/test/unity.c ****         UnityPrintNumberByStyle(actual, style);
 762:Core/test/unity.c ****         if (compare & UNITY_GREATER_THAN) { UnityPrint(UnityStrGt);       }
 763:Core/test/unity.c ****         if (compare & UNITY_SMALLER_THAN) { UnityPrint(UnityStrLt);       }
 764:Core/test/unity.c ****         if (compare & UNITY_EQUAL_TO)     { UnityPrint(UnityStrOrEqual);  }
 765:Core/test/unity.c ****         if (compare == UNITY_NOT_EQUAL)   { UnityPrint(UnityStrNotEqual); }
 766:Core/test/unity.c ****         UnityPrintNumberByStyle(threshold, style);
 767:Core/test/unity.c ****         UnityAddMsgIfSpecified(msg);
 768:Core/test/unity.c ****         UNITY_FAIL_AND_BAIL;
 769:Core/test/unity.c ****     }
 770:Core/test/unity.c **** }
 771:Core/test/unity.c **** 
ARM GAS  C:\Users\ASUS\AppData\Local\Temp\ccstHO0r.s 			page 15


 772:Core/test/unity.c **** #define UnityPrintPointlessAndBail()       \
 773:Core/test/unity.c **** do {                                       \
 774:Core/test/unity.c ****     UnityTestResultsFailBegin(lineNumber); \
 775:Core/test/unity.c ****     UnityPrint(UnityStrPointless);         \
 776:Core/test/unity.c ****     UnityAddMsgIfSpecified(msg);           \
 777:Core/test/unity.c ****     UNITY_FAIL_AND_BAIL;                   \
 778:Core/test/unity.c **** } while (0)
 779:Core/test/unity.c **** 
 780:Core/test/unity.c **** /*-----------------------------------------------*/
 781:Core/test/unity.c **** void UnityAssertEqualIntArray(UNITY_INTERNAL_PTR expected,
 782:Core/test/unity.c ****                               UNITY_INTERNAL_PTR actual,
 783:Core/test/unity.c ****                               const UNITY_UINT32 num_elements,
 784:Core/test/unity.c ****                               const char* msg,
 785:Core/test/unity.c ****                               const UNITY_LINE_TYPE lineNumber,
 786:Core/test/unity.c ****                               const UNITY_DISPLAY_STYLE_T style,
 787:Core/test/unity.c ****                               const UNITY_FLAGS_T flags)
 788:Core/test/unity.c **** {
 789:Core/test/unity.c ****     UNITY_UINT32 elements  = num_elements;
 790:Core/test/unity.c ****     unsigned int length    = style & 0xF;
 791:Core/test/unity.c ****     unsigned int increment = 0;
 792:Core/test/unity.c **** 
 793:Core/test/unity.c ****     RETURN_IF_FAIL_OR_IGNORE;
 794:Core/test/unity.c **** 
 795:Core/test/unity.c ****     if (num_elements == 0)
 796:Core/test/unity.c ****     {
 797:Core/test/unity.c **** #ifdef UNITY_COMPARE_PTRS_ON_ZERO_ARRAY
 798:Core/test/unity.c ****         UNITY_TEST_ASSERT_EQUAL_PTR(expected, actual, lineNumber, msg);
 799:Core/test/unity.c **** #else
 800:Core/test/unity.c ****         UnityPrintPointlessAndBail();
 801:Core/test/unity.c **** #endif
 802:Core/test/unity.c ****     }
 803:Core/test/unity.c **** 
 804:Core/test/unity.c ****     if (expected == actual)
 805:Core/test/unity.c ****     {
 806:Core/test/unity.c ****         return; /* Both are NULL or same pointer */
 807:Core/test/unity.c ****     }
 808:Core/test/unity.c **** 
 809:Core/test/unity.c ****     if (UnityIsOneArrayNull(expected, actual, lineNumber, msg))
 810:Core/test/unity.c ****     {
 811:Core/test/unity.c ****         UNITY_FAIL_AND_BAIL;
 812:Core/test/unity.c ****     }
 813:Core/test/unity.c **** 
 814:Core/test/unity.c ****     while ((elements > 0) && (elements--))
 815:Core/test/unity.c ****     {
 816:Core/test/unity.c ****         UNITY_INT expect_val;
 817:Core/test/unity.c ****         UNITY_INT actual_val;
 818:Core/test/unity.c **** 
 819:Core/test/unity.c ****         switch (length)
 820:Core/test/unity.c ****         {
 821:Core/test/unity.c ****             case 1:
 822:Core/test/unity.c ****                 expect_val = *(UNITY_PTR_ATTRIBUTE const UNITY_INT8*)expected;
 823:Core/test/unity.c ****                 actual_val = *(UNITY_PTR_ATTRIBUTE const UNITY_INT8*)actual;
 824:Core/test/unity.c ****                 if (style & (UNITY_DISPLAY_RANGE_UINT | UNITY_DISPLAY_RANGE_HEX))
 825:Core/test/unity.c ****                 {
 826:Core/test/unity.c ****                     expect_val &= 0x000000FF;
 827:Core/test/unity.c ****                     actual_val &= 0x000000FF;
 828:Core/test/unity.c ****                 }
ARM GAS  C:\Users\ASUS\AppData\Local\Temp\ccstHO0r.s 			page 16


 829:Core/test/unity.c ****                 increment  = sizeof(UNITY_INT8);
 830:Core/test/unity.c ****                 break;
 831:Core/test/unity.c **** 
 832:Core/test/unity.c ****             case 2:
 833:Core/test/unity.c ****                 expect_val = *(UNITY_PTR_ATTRIBUTE const UNITY_INT16*)expected;
 834:Core/test/unity.c ****                 actual_val = *(UNITY_PTR_ATTRIBUTE const UNITY_INT16*)actual;
 835:Core/test/unity.c ****                 if (style & (UNITY_DISPLAY_RANGE_UINT | UNITY_DISPLAY_RANGE_HEX))
 836:Core/test/unity.c ****                 {
 837:Core/test/unity.c ****                     expect_val &= 0x0000FFFF;
 838:Core/test/unity.c ****                     actual_val &= 0x0000FFFF;
 839:Core/test/unity.c ****                 }
 840:Core/test/unity.c ****                 increment  = sizeof(UNITY_INT16);
 841:Core/test/unity.c ****                 break;
 842:Core/test/unity.c **** 
 843:Core/test/unity.c **** #ifdef UNITY_SUPPORT_64
 844:Core/test/unity.c ****             case 8:
 845:Core/test/unity.c ****                 expect_val = *(UNITY_PTR_ATTRIBUTE const UNITY_INT64*)expected;
 846:Core/test/unity.c ****                 actual_val = *(UNITY_PTR_ATTRIBUTE const UNITY_INT64*)actual;
 847:Core/test/unity.c ****                 increment  = sizeof(UNITY_INT64);
 848:Core/test/unity.c ****                 break;
 849:Core/test/unity.c **** #endif
 850:Core/test/unity.c **** 
 851:Core/test/unity.c ****             default: /* default is length 4 bytes */
 852:Core/test/unity.c ****             case 4:
 853:Core/test/unity.c ****                 expect_val = *(UNITY_PTR_ATTRIBUTE const UNITY_INT32*)expected;
 854:Core/test/unity.c ****                 actual_val = *(UNITY_PTR_ATTRIBUTE const UNITY_INT32*)actual;
 855:Core/test/unity.c **** #ifdef UNITY_SUPPORT_64
 856:Core/test/unity.c ****                 if (style & (UNITY_DISPLAY_RANGE_UINT | UNITY_DISPLAY_RANGE_HEX))
 857:Core/test/unity.c ****                 {
 858:Core/test/unity.c ****                     expect_val &= 0x00000000FFFFFFFF;
 859:Core/test/unity.c ****                     actual_val &= 0x00000000FFFFFFFF;
 860:Core/test/unity.c ****                 }
 861:Core/test/unity.c **** #endif
 862:Core/test/unity.c ****                 increment  = sizeof(UNITY_INT32);
 863:Core/test/unity.c ****                 length = 4;
 864:Core/test/unity.c ****                 break;
 865:Core/test/unity.c ****         }
 866:Core/test/unity.c **** 
 867:Core/test/unity.c ****         if (expect_val != actual_val)
 868:Core/test/unity.c ****         {
 869:Core/test/unity.c ****             if ((style & UNITY_DISPLAY_RANGE_UINT) && (length < (UNITY_INT_WIDTH / 8)))
 870:Core/test/unity.c ****             {   /* For UINT, remove sign extension (padding 1's) from signed type casts above */
 871:Core/test/unity.c ****                 UNITY_INT mask = 1;
 872:Core/test/unity.c ****                 mask = (mask << 8 * length) - 1;
 873:Core/test/unity.c ****                 expect_val &= mask;
 874:Core/test/unity.c ****                 actual_val &= mask;
 875:Core/test/unity.c ****             }
 876:Core/test/unity.c ****             UnityTestResultsFailBegin(lineNumber);
 877:Core/test/unity.c ****             UnityPrint(UnityStrElement);
 878:Core/test/unity.c ****             UnityPrintNumberUnsigned(num_elements - elements - 1);
 879:Core/test/unity.c ****             UnityPrint(UnityStrExpected);
 880:Core/test/unity.c ****             UnityPrintNumberByStyle(expect_val, style);
 881:Core/test/unity.c ****             UnityPrint(UnityStrWas);
 882:Core/test/unity.c ****             UnityPrintNumberByStyle(actual_val, style);
 883:Core/test/unity.c ****             UnityAddMsgIfSpecified(msg);
 884:Core/test/unity.c ****             UNITY_FAIL_AND_BAIL;
 885:Core/test/unity.c ****         }
ARM GAS  C:\Users\ASUS\AppData\Local\Temp\ccstHO0r.s 			page 17


 886:Core/test/unity.c ****         /* Walk through array by incrementing the pointers */
 887:Core/test/unity.c ****         if (flags == UNITY_ARRAY_TO_ARRAY)
 888:Core/test/unity.c ****         {
 889:Core/test/unity.c ****             expected = (UNITY_INTERNAL_PTR)((const char*)expected + increment);
 890:Core/test/unity.c ****         }
 891:Core/test/unity.c ****         actual = (UNITY_INTERNAL_PTR)((const char*)actual + increment);
 892:Core/test/unity.c ****     }
 893:Core/test/unity.c **** }
 894:Core/test/unity.c **** 
 895:Core/test/unity.c **** /*-----------------------------------------------*/
 896:Core/test/unity.c **** #ifndef UNITY_EXCLUDE_FLOAT
 897:Core/test/unity.c **** /* Wrap this define in a function with variable types as float or double */
 898:Core/test/unity.c **** #define UNITY_FLOAT_OR_DOUBLE_WITHIN(delta, expected, actual, diff)                           \
 899:Core/test/unity.c ****     if (UNITY_IS_INF(expected) && UNITY_IS_INF(actual) && (((expected) < 0) == ((actual) < 0))) ret
 900:Core/test/unity.c ****     if (UNITY_NAN_CHECK) return 1;                                                            \
 901:Core/test/unity.c ****     (diff) = (actual) - (expected);                                                           \
 902:Core/test/unity.c ****     if ((diff) < 0) (diff) = -(diff);                                                         \
 903:Core/test/unity.c ****     if ((delta) < 0) (delta) = -(delta);                                                      \
 904:Core/test/unity.c ****     return !(UNITY_IS_NAN(diff) || UNITY_IS_INF(diff) || ((diff) > (delta)))
 905:Core/test/unity.c ****     /* This first part of this condition will catch any NaN or Infinite values */
 906:Core/test/unity.c **** #ifndef UNITY_NAN_NOT_EQUAL_NAN
 907:Core/test/unity.c ****   #define UNITY_NAN_CHECK UNITY_IS_NAN(expected) && UNITY_IS_NAN(actual)
 908:Core/test/unity.c **** #else
 909:Core/test/unity.c ****   #define UNITY_NAN_CHECK 0
 910:Core/test/unity.c **** #endif
 911:Core/test/unity.c **** 
 912:Core/test/unity.c **** #ifndef UNITY_EXCLUDE_FLOAT_PRINT
 913:Core/test/unity.c ****   #define UNITY_PRINT_EXPECTED_AND_ACTUAL_FLOAT(expected, actual) \
 914:Core/test/unity.c ****   do {                                                            \
 915:Core/test/unity.c ****     UnityPrint(UnityStrExpected);                                 \
 916:Core/test/unity.c ****     UnityPrintFloat(expected);                                    \
 917:Core/test/unity.c ****     UnityPrint(UnityStrWas);                                      \
 918:Core/test/unity.c ****     UnityPrintFloat(actual);                                      \
 919:Core/test/unity.c ****   } while (0)
 920:Core/test/unity.c **** #else
 921:Core/test/unity.c ****   #define UNITY_PRINT_EXPECTED_AND_ACTUAL_FLOAT(expected, actual) \
 922:Core/test/unity.c ****     UnityPrint(UnityStrDelta)
 923:Core/test/unity.c **** #endif /* UNITY_EXCLUDE_FLOAT_PRINT */
 924:Core/test/unity.c **** 
 925:Core/test/unity.c **** /*-----------------------------------------------*/
 926:Core/test/unity.c **** static int UnityFloatsWithin(UNITY_FLOAT delta, UNITY_FLOAT expected, UNITY_FLOAT actual)
 927:Core/test/unity.c **** {
  29              		.loc 1 927 1 view -0
  30              		.cfi_startproc
  31              		@ args = 0, pretend = 0, frame = 0
  32              		@ frame_needed = 0, uses_anonymous_args = 0
  33              		@ link register save eliminated.
 928:Core/test/unity.c ****     UNITY_FLOAT diff;
  34              		.loc 1 928 5 view .LVU1
 929:Core/test/unity.c ****     UNITY_FLOAT_OR_DOUBLE_WITHIN(delta, expected, actual, diff);
  35              		.loc 1 929 5 view .LVU2
  36 0000 B0EEE07A 		vabs.f32	s14, s1
  37 0004 DFED2D7A 		vldr.32	s15, .L25
  38 0008 B4EE677A 		vcmp.f32	s14, s15
  39 000c F1EE10FA 		vmrs	APSR_nzcv, FPSCR
  40 0010 18DD     		ble	.L2
  41              		.loc 1 929 5 is_stmt 0 discriminator 1 view .LVU3
ARM GAS  C:\Users\ASUS\AppData\Local\Temp\ccstHO0r.s 			page 18


  42 0012 F0EEC17A 		vabs.f32	s15, s2
  43 0016 9FED297A 		vldr.32	s14, .L25
  44 001a F4EE477A 		vcmp.f32	s15, s14
  45 001e F1EE10FA 		vmrs	APSR_nzcv, FPSCR
  46 0022 0FDD     		ble	.L2
  47              		.loc 1 929 5 discriminator 3 view .LVU4
  48 0024 F5EEC00A 		vcmpe.f32	s1, #0
  49 0028 F1EE10FA 		vmrs	APSR_nzcv, FPSCR
  50 002c 4CBF     		ite	mi
  51 002e 0122     		movmi	r2, #1
  52 0030 0022     		movpl	r2, #0
  53 0032 B5EEC01A 		vcmpe.f32	s2, #0
  54 0036 F1EE10FA 		vmrs	APSR_nzcv, FPSCR
  55 003a 4CBF     		ite	mi
  56 003c 0123     		movmi	r3, #1
  57 003e 0023     		movpl	r3, #0
  58 0040 9A42     		cmp	r2, r3
  59 0042 32D0     		beq	.L11
  60              	.L2:
  61              		.loc 1 929 5 is_stmt 1 discriminator 6 view .LVU5
  62 0044 F4EE600A 		vcmp.f32	s1, s1
  63 0048 F1EE10FA 		vmrs	APSR_nzcv, FPSCR
  64 004c 20D6     		bvs	.L22
  65              	.L4:
  66              		.loc 1 929 5 discriminator 10 view .LVU6
  67 004e 31EE601A 		vsub.f32	s2, s2, s1
  68              	.LVL1:
  69              		.loc 1 929 5 discriminator 10 view .LVU7
  70 0052 B5EEC01A 		vcmpe.f32	s2, #0
  71 0056 F1EE10FA 		vmrs	APSR_nzcv, FPSCR
  72 005a 20D4     		bmi	.L23
  73              	.L5:
  74              		.loc 1 929 5 discriminator 13 view .LVU8
  75 005c B5EEC00A 		vcmpe.f32	s0, #0
  76 0060 F1EE10FA 		vmrs	APSR_nzcv, FPSCR
  77 0064 1ED4     		bmi	.L24
  78              	.L7:
  79              		.loc 1 929 5 discriminator 16 view .LVU9
  80 0066 B4EE411A 		vcmp.f32	s2, s2
  81 006a F1EE10FA 		vmrs	APSR_nzcv, FPSCR
  82 006e 1ED6     		bvs	.L13
  83              		.loc 1 929 5 is_stmt 0 discriminator 17 view .LVU10
  84 0070 F0EEC17A 		vabs.f32	s15, s2
  85 0074 9FED117A 		vldr.32	s14, .L25
  86 0078 F4EE477A 		vcmp.f32	s15, s14
  87 007c F1EE10FA 		vmrs	APSR_nzcv, FPSCR
  88 0080 17DC     		bgt	.L20
  89              		.loc 1 929 5 discriminator 19 view .LVU11
  90 0082 B4EEC10A 		vcmpe.f32	s0, s2
  91 0086 F1EE10FA 		vmrs	APSR_nzcv, FPSCR
  92 008a 14D5     		bpl	.L21
  93              		.loc 1 929 5 view .LVU12
  94 008c 0020     		movs	r0, #0
  95 008e 7047     		bx	lr
  96              	.LVL2:
  97              	.L22:
  98              		.loc 1 929 5 discriminator 7 view .LVU13
ARM GAS  C:\Users\ASUS\AppData\Local\Temp\ccstHO0r.s 			page 19


  99 0090 B4EE411A 		vcmp.f32	s2, s2
 100 0094 F1EE10FA 		vmrs	APSR_nzcv, FPSCR
 101 0098 D9D7     		bvc	.L4
 102              		.loc 1 929 5 view .LVU14
 103 009a 0120     		movs	r0, #1
 104 009c 7047     		bx	lr
 105              	.LVL3:
 106              	.L23:
 107              		.loc 1 929 5 is_stmt 1 discriminator 11 view .LVU15
 108 009e B1EE411A 		vneg.f32	s2, s2
 109              	.LVL4:
 110              		.loc 1 929 5 is_stmt 0 discriminator 11 view .LVU16
 111 00a2 DBE7     		b	.L5
 112              	.L24:
 113              		.loc 1 929 5 is_stmt 1 discriminator 14 view .LVU17
 114 00a4 B1EE400A 		vneg.f32	s0, s0
 115              	.LVL5:
 116              		.loc 1 929 5 is_stmt 0 discriminator 14 view .LVU18
 117 00a8 DDE7     		b	.L7
 118              	.LVL6:
 119              	.L11:
 120              		.loc 1 929 5 view .LVU19
 121 00aa 0120     		movs	r0, #1
 122 00ac 7047     		bx	lr
 123              	.LVL7:
 124              	.L13:
 125              		.loc 1 929 5 view .LVU20
 126 00ae 0020     		movs	r0, #0
 127 00b0 7047     		bx	lr
 128              	.L20:
 129 00b2 0020     		movs	r0, #0
 130 00b4 7047     		bx	lr
 131              	.L21:
 132 00b6 0120     		movs	r0, #1
 930:Core/test/unity.c **** }
 133              		.loc 1 930 1 view .LVU21
 134 00b8 7047     		bx	lr
 135              	.L26:
 136 00ba 00BF     		.align	2
 137              	.L25:
 138 00bc FFFF7F7F 		.word	2139095039
 139              		.cfi_endproc
 140              	.LFE157:
 142              		.section	.text.UnityPrintNumberUnsigned,"ax",%progbits
 143              		.align	1
 144              		.global	UnityPrintNumberUnsigned
 145              		.syntax unified
 146              		.thumb
 147              		.thumb_func
 148              		.fpu fpv4-sp-d16
 150              	UnityPrintNumberUnsigned:
 151              	.LVL8:
 152              	.LFB142:
 255:Core/test/unity.c ****     UNITY_UINT divisor = 1;
 153              		.loc 1 255 1 is_stmt 1 view -0
 154              		.cfi_startproc
 155              		@ args = 0, pretend = 0, frame = 0
ARM GAS  C:\Users\ASUS\AppData\Local\Temp\ccstHO0r.s 			page 20


 156              		@ frame_needed = 0, uses_anonymous_args = 0
 255:Core/test/unity.c ****     UNITY_UINT divisor = 1;
 157              		.loc 1 255 1 is_stmt 0 view .LVU23
 158 0000 70B5     		push	{r4, r5, r6, lr}
 159              	.LCFI0:
 160              		.cfi_def_cfa_offset 16
 161              		.cfi_offset 4, -16
 162              		.cfi_offset 5, -12
 163              		.cfi_offset 6, -8
 164              		.cfi_offset 14, -4
 165 0002 0646     		mov	r6, r0
 256:Core/test/unity.c **** 
 166              		.loc 1 256 5 is_stmt 1 view .LVU24
 167              	.LVL9:
 259:Core/test/unity.c ****     {
 168              		.loc 1 259 5 view .LVU25
 256:Core/test/unity.c **** 
 169              		.loc 1 256 16 is_stmt 0 view .LVU26
 170 0004 0124     		movs	r4, #1
 259:Core/test/unity.c ****     {
 171              		.loc 1 259 11 view .LVU27
 172 0006 02E0     		b	.L28
 173              	.LVL10:
 174              	.L29:
 261:Core/test/unity.c ****     }
 175              		.loc 1 261 9 is_stmt 1 view .LVU28
 261:Core/test/unity.c ****     }
 176              		.loc 1 261 17 is_stmt 0 view .LVU29
 177 0008 04EB8404 		add	r4, r4, r4, lsl #2
 178              	.LVL11:
 261:Core/test/unity.c ****     }
 179              		.loc 1 261 17 view .LVU30
 180 000c 6400     		lsls	r4, r4, #1
 181              	.LVL12:
 182              	.L28:
 259:Core/test/unity.c ****     {
 183              		.loc 1 259 11 is_stmt 1 view .LVU31
 259:Core/test/unity.c ****     {
 184              		.loc 1 259 19 is_stmt 0 view .LVU32
 185 000e B6FBF4F3 		udiv	r3, r6, r4
 259:Core/test/unity.c ****     {
 186              		.loc 1 259 11 view .LVU33
 187 0012 092B     		cmp	r3, #9
 188 0014 F8D8     		bhi	.L29
 189              	.LVL13:
 190              	.L30:
 265:Core/test/unity.c ****     {
 191              		.loc 1 265 5 is_stmt 1 discriminator 1 view .LVU34
 267:Core/test/unity.c ****         divisor /= 10;
 192              		.loc 1 267 9 discriminator 1 view .LVU35
 193 0016 B6FBF4F3 		udiv	r3, r6, r4
 194 001a 094D     		ldr	r5, .L32
 195 001c A5FB0320 		umull	r2, r0, r5, r3
 196 0020 C008     		lsrs	r0, r0, #3
 197 0022 00EB8000 		add	r0, r0, r0, lsl #2
 198 0026 A3EB4000 		sub	r0, r3, r0, lsl #1
 199 002a 3030     		adds	r0, r0, #48
ARM GAS  C:\Users\ASUS\AppData\Local\Temp\ccstHO0r.s 			page 21


 200 002c C0B2     		uxtb	r0, r0
 201 002e FFF7FEFF 		bl	uart_sendchar
 202              	.LVL14:
 268:Core/test/unity.c ****     } while (divisor > 0);
 203              		.loc 1 268 9 discriminator 1 view .LVU36
 204 0032 2346     		mov	r3, r4
 268:Core/test/unity.c ****     } while (divisor > 0);
 205              		.loc 1 268 17 is_stmt 0 discriminator 1 view .LVU37
 206 0034 A5FB0424 		umull	r2, r4, r5, r4
 207              	.LVL15:
 268:Core/test/unity.c ****     } while (divisor > 0);
 208              		.loc 1 268 17 discriminator 1 view .LVU38
 209 0038 E408     		lsrs	r4, r4, #3
 210              	.LVL16:
 269:Core/test/unity.c **** }
 211              		.loc 1 269 13 is_stmt 1 discriminator 1 view .LVU39
 269:Core/test/unity.c **** }
 212              		.loc 1 269 5 is_stmt 0 discriminator 1 view .LVU40
 213 003a 092B     		cmp	r3, #9
 214 003c EBD8     		bhi	.L30
 270:Core/test/unity.c **** 
 215              		.loc 1 270 1 view .LVU41
 216 003e 70BD     		pop	{r4, r5, r6, pc}
 217              	.LVL17:
 218              	.L33:
 270:Core/test/unity.c **** 
 219              		.loc 1 270 1 view .LVU42
 220              		.align	2
 221              	.L32:
 222 0040 CDCCCCCC 		.word	-858993459
 223              		.cfi_endproc
 224              	.LFE142:
 226              		.section	.text.UnityPrintNumber,"ax",%progbits
 227              		.align	1
 228              		.global	UnityPrintNumber
 229              		.syntax unified
 230              		.thumb
 231              		.thumb_func
 232              		.fpu fpv4-sp-d16
 234              	UnityPrintNumber:
 235              	.LVL18:
 236              	.LFB141:
 240:Core/test/unity.c ****     UNITY_UINT number = (UNITY_UINT)number_to_print;
 237              		.loc 1 240 1 is_stmt 1 view -0
 238              		.cfi_startproc
 239              		@ args = 0, pretend = 0, frame = 0
 240              		@ frame_needed = 0, uses_anonymous_args = 0
 240:Core/test/unity.c ****     UNITY_UINT number = (UNITY_UINT)number_to_print;
 241              		.loc 1 240 1 is_stmt 0 view .LVU44
 242 0000 10B5     		push	{r4, lr}
 243              	.LCFI1:
 244              		.cfi_def_cfa_offset 8
 245              		.cfi_offset 4, -8
 246              		.cfi_offset 14, -4
 241:Core/test/unity.c **** 
 247              		.loc 1 241 5 is_stmt 1 view .LVU45
 248              	.LVL19:
ARM GAS  C:\Users\ASUS\AppData\Local\Temp\ccstHO0r.s 			page 22


 243:Core/test/unity.c ****     {
 249              		.loc 1 243 5 view .LVU46
 243:Core/test/unity.c ****     {
 250              		.loc 1 243 8 is_stmt 0 view .LVU47
 251 0002 041E     		subs	r4, r0, #0
 252 0004 03DB     		blt	.L37
 253              	.LVL20:
 254              	.L35:
 249:Core/test/unity.c **** }
 255              		.loc 1 249 5 is_stmt 1 view .LVU48
 256 0006 2046     		mov	r0, r4
 257 0008 FFF7FEFF 		bl	UnityPrintNumberUnsigned
 258              	.LVL21:
 250:Core/test/unity.c **** 
 259              		.loc 1 250 1 is_stmt 0 view .LVU49
 260 000c 10BD     		pop	{r4, pc}
 261              	.LVL22:
 262              	.L37:
 246:Core/test/unity.c ****         number = (~number) + 1;
 263              		.loc 1 246 9 is_stmt 1 view .LVU50
 264 000e 2D20     		movs	r0, #45
 265              	.LVL23:
 246:Core/test/unity.c ****         number = (~number) + 1;
 266              		.loc 1 246 9 is_stmt 0 view .LVU51
 267 0010 FFF7FEFF 		bl	uart_sendchar
 268              	.LVL24:
 247:Core/test/unity.c ****     }
 269              		.loc 1 247 9 is_stmt 1 view .LVU52
 247:Core/test/unity.c ****     }
 270              		.loc 1 247 16 is_stmt 0 view .LVU53
 271 0014 6442     		rsbs	r4, r4, #0
 272              	.LVL25:
 247:Core/test/unity.c ****     }
 273              		.loc 1 247 16 view .LVU54
 274 0016 F6E7     		b	.L35
 275              		.cfi_endproc
 276              	.LFE141:
 278              		.section	.text.UnityPrintNumberHex,"ax",%progbits
 279              		.align	1
 280              		.global	UnityPrintNumberHex
 281              		.syntax unified
 282              		.thumb
 283              		.thumb_func
 284              		.fpu fpv4-sp-d16
 286              	UnityPrintNumberHex:
 287              	.LVL26:
 288              	.LFB143:
 274:Core/test/unity.c ****     int nibble;
 289              		.loc 1 274 1 is_stmt 1 view -0
 290              		.cfi_startproc
 291              		@ args = 0, pretend = 0, frame = 0
 292              		@ frame_needed = 0, uses_anonymous_args = 0
 274:Core/test/unity.c ****     int nibble;
 293              		.loc 1 274 1 is_stmt 0 view .LVU56
 294 0000 38B5     		push	{r3, r4, r5, lr}
 295              	.LCFI2:
 296              		.cfi_def_cfa_offset 16
ARM GAS  C:\Users\ASUS\AppData\Local\Temp\ccstHO0r.s 			page 23


 297              		.cfi_offset 3, -16
 298              		.cfi_offset 4, -12
 299              		.cfi_offset 5, -8
 300              		.cfi_offset 14, -4
 301 0002 0546     		mov	r5, r0
 302 0004 0C46     		mov	r4, r1
 275:Core/test/unity.c ****     char nibbles = nibbles_to_print;
 303              		.loc 1 275 5 is_stmt 1 view .LVU57
 276:Core/test/unity.c **** 
 304              		.loc 1 276 5 view .LVU58
 305              	.LVL27:
 278:Core/test/unity.c ****     {
 306              		.loc 1 278 5 view .LVU59
 278:Core/test/unity.c ****     {
 307              		.loc 1 278 8 is_stmt 0 view .LVU60
 308 0006 0829     		cmp	r1, #8
 309 0008 04D9     		bls	.L40
 280:Core/test/unity.c ****     }
 310              		.loc 1 280 17 view .LVU61
 311 000a 0824     		movs	r4, #8
 312              	.LVL28:
 280:Core/test/unity.c ****     }
 313              		.loc 1 280 17 view .LVU62
 314 000c 02E0     		b	.L40
 315              	.LVL29:
 316              	.L41:
 293:Core/test/unity.c ****         }
 317              		.loc 1 293 13 is_stmt 1 view .LVU63
 318 000e 3730     		adds	r0, r0, #55
 319              	.LVL30:
 293:Core/test/unity.c ****         }
 320              		.loc 1 293 13 is_stmt 0 view .LVU64
 321 0010 FFF7FEFF 		bl	uart_sendchar
 322              	.LVL31:
 323              	.L40:
 283:Core/test/unity.c ****     {
 324              		.loc 1 283 11 is_stmt 1 view .LVU65
 325 0014 64B1     		cbz	r4, .L46
 285:Core/test/unity.c ****         nibble = (int)(number >> (nibbles * 4)) & 0x0F;
 326              		.loc 1 285 9 view .LVU66
 285:Core/test/unity.c ****         nibble = (int)(number >> (nibbles * 4)) & 0x0F;
 327              		.loc 1 285 16 is_stmt 0 view .LVU67
 328 0016 013C     		subs	r4, r4, #1
 329              	.LVL32:
 285:Core/test/unity.c ****         nibble = (int)(number >> (nibbles * 4)) & 0x0F;
 330              		.loc 1 285 16 view .LVU68
 331 0018 E4B2     		uxtb	r4, r4
 332              	.LVL33:
 286:Core/test/unity.c ****         if (nibble <= 9)
 333              		.loc 1 286 9 is_stmt 1 view .LVU69
 286:Core/test/unity.c ****         if (nibble <= 9)
 334              		.loc 1 286 43 is_stmt 0 view .LVU70
 335 001a A000     		lsls	r0, r4, #2
 286:Core/test/unity.c ****         if (nibble <= 9)
 336              		.loc 1 286 31 view .LVU71
 337 001c 25FA00F0 		lsr	r0, r5, r0
 286:Core/test/unity.c ****         if (nibble <= 9)
ARM GAS  C:\Users\ASUS\AppData\Local\Temp\ccstHO0r.s 			page 24


 338              		.loc 1 286 16 view .LVU72
 339 0020 00F00F00 		and	r0, r0, #15
 340              	.LVL34:
 287:Core/test/unity.c ****         {
 341              		.loc 1 287 9 is_stmt 1 view .LVU73
 287:Core/test/unity.c ****         {
 342              		.loc 1 287 12 is_stmt 0 view .LVU74
 343 0024 0928     		cmp	r0, #9
 344 0026 F2DC     		bgt	.L41
 289:Core/test/unity.c ****         }
 345              		.loc 1 289 13 is_stmt 1 view .LVU75
 346 0028 3030     		adds	r0, r0, #48
 347              	.LVL35:
 289:Core/test/unity.c ****         }
 348              		.loc 1 289 13 is_stmt 0 view .LVU76
 349 002a FFF7FEFF 		bl	uart_sendchar
 350              	.LVL36:
 289:Core/test/unity.c ****         }
 351              		.loc 1 289 13 view .LVU77
 352 002e F1E7     		b	.L40
 353              	.LVL37:
 354              	.L46:
 296:Core/test/unity.c **** 
 355              		.loc 1 296 1 view .LVU78
 356 0030 38BD     		pop	{r3, r4, r5, pc}
 296:Core/test/unity.c **** 
 357              		.loc 1 296 1 view .LVU79
 358              		.cfi_endproc
 359              	.LFE143:
 361              		.section	.text.UnityPrintChar,"ax",%progbits
 362              		.align	1
 363              		.syntax unified
 364              		.thumb
 365              		.thumb_func
 366              		.fpu fpv4-sp-d16
 368              	UnityPrintChar:
 369              	.LVL38:
 370              	.LFB137:
  79:Core/test/unity.c ****     /* printable characters plus CR & LF are printed */
 371              		.loc 1 79 1 is_stmt 1 view -0
 372              		.cfi_startproc
 373              		@ args = 0, pretend = 0, frame = 0
 374              		@ frame_needed = 0, uses_anonymous_args = 0
  79:Core/test/unity.c ****     /* printable characters plus CR & LF are printed */
 375              		.loc 1 79 1 is_stmt 0 view .LVU81
 376 0000 10B5     		push	{r4, lr}
 377              	.LCFI3:
 378              		.cfi_def_cfa_offset 8
 379              		.cfi_offset 4, -8
 380              		.cfi_offset 14, -4
 381 0002 0446     		mov	r4, r0
  81:Core/test/unity.c ****     {
 382              		.loc 1 81 5 is_stmt 1 view .LVU82
  81:Core/test/unity.c ****     {
 383              		.loc 1 81 10 is_stmt 0 view .LVU83
 384 0004 0078     		ldrb	r0, [r0]	@ zero_extendqisi2
 385              	.LVL39:
ARM GAS  C:\Users\ASUS\AppData\Local\Temp\ccstHO0r.s 			page 25


  81:Core/test/unity.c ****     {
 386              		.loc 1 81 23 view .LVU84
 387 0006 A0F12003 		sub	r3, r0, #32
 388 000a DBB2     		uxtb	r3, r3
  81:Core/test/unity.c ****     {
 389              		.loc 1 81 8 view .LVU85
 390 000c 5E2B     		cmp	r3, #94
 391 000e 0ED9     		bls	.L53
  86:Core/test/unity.c ****     {
 392              		.loc 1 86 10 is_stmt 1 view .LVU86
  86:Core/test/unity.c ****     {
 393              		.loc 1 86 13 is_stmt 0 view .LVU87
 394 0010 0D28     		cmp	r0, #13
 395 0012 0FD0     		beq	.L54
  92:Core/test/unity.c ****     {
 396              		.loc 1 92 10 is_stmt 1 view .LVU88
  92:Core/test/unity.c ****     {
 397              		.loc 1 92 13 is_stmt 0 view .LVU89
 398 0014 0A28     		cmp	r0, #10
 399 0016 14D0     		beq	.L55
 100:Core/test/unity.c ****         UNITY_OUTPUT_CHAR('x');
 400              		.loc 1 100 9 is_stmt 1 view .LVU90
 401 0018 5C20     		movs	r0, #92
 402 001a FFF7FEFF 		bl	uart_sendchar
 403              	.LVL40:
 101:Core/test/unity.c ****         UnityPrintNumberHex((UNITY_UINT)*pch, 2);
 404              		.loc 1 101 9 view .LVU91
 405 001e 7820     		movs	r0, #120
 406 0020 FFF7FEFF 		bl	uart_sendchar
 407              	.LVL41:
 102:Core/test/unity.c ****     }
 408              		.loc 1 102 9 view .LVU92
 409 0024 0221     		movs	r1, #2
 410 0026 2078     		ldrb	r0, [r4]	@ zero_extendqisi2
 411 0028 FFF7FEFF 		bl	UnityPrintNumberHex
 412              	.LVL42:
 413              	.L47:
 104:Core/test/unity.c **** 
 414              		.loc 1 104 1 is_stmt 0 view .LVU93
 415 002c 10BD     		pop	{r4, pc}
 416              	.LVL43:
 417              	.L53:
  83:Core/test/unity.c ****     }
 418              		.loc 1 83 9 is_stmt 1 view .LVU94
 419 002e FFF7FEFF 		bl	uart_sendchar
 420              	.LVL44:
 421 0032 FBE7     		b	.L47
 422              	.L54:
  88:Core/test/unity.c ****         UNITY_OUTPUT_CHAR('r');
 423              		.loc 1 88 9 view .LVU95
 424 0034 5C20     		movs	r0, #92
 425 0036 FFF7FEFF 		bl	uart_sendchar
 426              	.LVL45:
  89:Core/test/unity.c ****     }
 427              		.loc 1 89 9 view .LVU96
 428 003a 7220     		movs	r0, #114
 429 003c FFF7FEFF 		bl	uart_sendchar
ARM GAS  C:\Users\ASUS\AppData\Local\Temp\ccstHO0r.s 			page 26


 430              	.LVL46:
 431 0040 F4E7     		b	.L47
 432              	.L55:
  94:Core/test/unity.c ****         UNITY_OUTPUT_CHAR('n');
 433              		.loc 1 94 9 view .LVU97
 434 0042 5C20     		movs	r0, #92
 435 0044 FFF7FEFF 		bl	uart_sendchar
 436              	.LVL47:
  95:Core/test/unity.c ****     }
 437              		.loc 1 95 9 view .LVU98
 438 0048 6E20     		movs	r0, #110
 439 004a FFF7FEFF 		bl	uart_sendchar
 440              	.LVL48:
 441 004e EDE7     		b	.L47
 442              		.cfi_endproc
 443              	.LFE137:
 445              		.section	.text.UnityPrint,"ax",%progbits
 446              		.align	1
 447              		.global	UnityPrint
 448              		.syntax unified
 449              		.thumb
 450              		.thumb_func
 451              		.fpu fpv4-sp-d16
 453              	UnityPrint:
 454              	.LVL49:
 455              	.LFB138:
 129:Core/test/unity.c ****     const char* pch = string;
 456              		.loc 1 129 1 view -0
 457              		.cfi_startproc
 458              		@ args = 0, pretend = 0, frame = 0
 459              		@ frame_needed = 0, uses_anonymous_args = 0
 129:Core/test/unity.c ****     const char* pch = string;
 460              		.loc 1 129 1 is_stmt 0 view .LVU100
 461 0000 10B5     		push	{r4, lr}
 462              	.LCFI4:
 463              		.cfi_def_cfa_offset 8
 464              		.cfi_offset 4, -8
 465              		.cfi_offset 14, -4
 130:Core/test/unity.c **** 
 466              		.loc 1 130 5 is_stmt 1 view .LVU101
 467              	.LVL50:
 132:Core/test/unity.c ****     {
 468              		.loc 1 132 5 view .LVU102
 132:Core/test/unity.c ****     {
 469              		.loc 1 132 8 is_stmt 0 view .LVU103
 470 0002 0446     		mov	r4, r0
 471 0004 20B9     		cbnz	r0, .L57
 472 0006 06E0     		b	.L56
 473              	.LVL51:
 474              	.L59:
 144:Core/test/unity.c ****             pch++;
 475              		.loc 1 144 13 is_stmt 1 view .LVU104
 476 0008 2046     		mov	r0, r4
 477 000a FFF7FEFF 		bl	UnityPrintChar
 478              	.LVL52:
 145:Core/test/unity.c ****         }
 479              		.loc 1 145 13 view .LVU105
ARM GAS  C:\Users\ASUS\AppData\Local\Temp\ccstHO0r.s 			page 27


 145:Core/test/unity.c ****         }
 480              		.loc 1 145 16 is_stmt 0 view .LVU106
 481 000e 0134     		adds	r4, r4, #1
 482              	.LVL53:
 483              	.L57:
 134:Core/test/unity.c ****         {
 484              		.loc 1 134 15 is_stmt 1 view .LVU107
 134:Core/test/unity.c ****         {
 485              		.loc 1 134 16 is_stmt 0 view .LVU108
 486 0010 2378     		ldrb	r3, [r4]	@ zero_extendqisi2
 134:Core/test/unity.c ****         {
 487              		.loc 1 134 15 view .LVU109
 488 0012 002B     		cmp	r3, #0
 489 0014 F8D1     		bne	.L59
 490              	.L56:
 148:Core/test/unity.c **** /*-----------------------------------------------*/
 491              		.loc 1 148 1 view .LVU110
 492 0016 10BD     		pop	{r4, pc}
 148:Core/test/unity.c **** /*-----------------------------------------------*/
 493              		.loc 1 148 1 view .LVU111
 494              		.cfi_endproc
 495              	.LFE138:
 497              		.section	.text.UnityTestResultsBegin,"ax",%progbits
 498              		.align	1
 499              		.syntax unified
 500              		.thumb
 501              		.thumb_func
 502              		.fpu fpv4-sp-d16
 504              	UnityTestResultsBegin:
 505              	.LVL54:
 506              	.LFB146:
 496:Core/test/unity.c **** #ifdef UNITY_OUTPUT_FOR_ECLIPSE
 507              		.loc 1 496 1 is_stmt 1 view -0
 508              		.cfi_startproc
 509              		@ args = 0, pretend = 0, frame = 0
 510              		@ frame_needed = 0, uses_anonymous_args = 0
 496:Core/test/unity.c **** #ifdef UNITY_OUTPUT_FOR_ECLIPSE
 511              		.loc 1 496 1 is_stmt 0 view .LVU113
 512 0000 10B5     		push	{r4, lr}
 513              	.LCFI5:
 514              		.cfi_def_cfa_offset 8
 515              		.cfi_offset 4, -8
 516              		.cfi_offset 14, -4
 517 0002 0C46     		mov	r4, r1
 526:Core/test/unity.c ****     UNITY_OUTPUT_CHAR(':');
 518              		.loc 1 526 5 is_stmt 1 view .LVU114
 519 0004 FFF7FEFF 		bl	UnityPrint
 520              	.LVL55:
 527:Core/test/unity.c ****     UnityPrintNumber((UNITY_INT)line);
 521              		.loc 1 527 5 view .LVU115
 522 0008 3A20     		movs	r0, #58
 523 000a FFF7FEFF 		bl	uart_sendchar
 524              	.LVL56:
 528:Core/test/unity.c ****     UNITY_OUTPUT_CHAR(':');
 525              		.loc 1 528 5 view .LVU116
 526 000e 2046     		mov	r0, r4
 527 0010 FFF7FEFF 		bl	UnityPrintNumber
ARM GAS  C:\Users\ASUS\AppData\Local\Temp\ccstHO0r.s 			page 28


 528              	.LVL57:
 529:Core/test/unity.c ****     UnityPrint(Unity.CurrentTestName);
 529              		.loc 1 529 5 view .LVU117
 530 0014 3A20     		movs	r0, #58
 531 0016 FFF7FEFF 		bl	uart_sendchar
 532              	.LVL58:
 530:Core/test/unity.c ****     UNITY_OUTPUT_CHAR(':');
 533              		.loc 1 530 5 view .LVU118
 534 001a 044B     		ldr	r3, .L63
 535 001c 5868     		ldr	r0, [r3, #4]
 536 001e FFF7FEFF 		bl	UnityPrint
 537              	.LVL59:
 531:Core/test/unity.c **** #endif
 538              		.loc 1 531 5 view .LVU119
 539 0022 3A20     		movs	r0, #58
 540 0024 FFF7FEFF 		bl	uart_sendchar
 541              	.LVL60:
 535:Core/test/unity.c **** 
 542              		.loc 1 535 1 is_stmt 0 view .LVU120
 543 0028 10BD     		pop	{r4, pc}
 544              	.LVL61:
 545              	.L64:
 535:Core/test/unity.c **** 
 546              		.loc 1 535 1 view .LVU121
 547 002a 00BF     		.align	2
 548              	.L63:
 549 002c 00000000 		.word	.LANCHOR0
 550              		.cfi_endproc
 551              	.LFE146:
 553              		.section	.text.UnityTestResultsFailBegin,"ax",%progbits
 554              		.align	1
 555              		.syntax unified
 556              		.thumb
 557              		.thumb_func
 558              		.fpu fpv4-sp-d16
 560              	UnityTestResultsFailBegin:
 561              	.LVL62:
 562              	.LFB147:
 539:Core/test/unity.c ****     UnityTestResultsBegin(Unity.TestFile, line);
 563              		.loc 1 539 1 is_stmt 1 view -0
 564              		.cfi_startproc
 565              		@ args = 0, pretend = 0, frame = 0
 566              		@ frame_needed = 0, uses_anonymous_args = 0
 539:Core/test/unity.c ****     UnityTestResultsBegin(Unity.TestFile, line);
 567              		.loc 1 539 1 is_stmt 0 view .LVU123
 568 0000 08B5     		push	{r3, lr}
 569              	.LCFI6:
 570              		.cfi_def_cfa_offset 8
 571              		.cfi_offset 3, -8
 572              		.cfi_offset 14, -4
 573 0002 0146     		mov	r1, r0
 540:Core/test/unity.c ****     UnityPrint(UnityStrFail);
 574              		.loc 1 540 5 is_stmt 1 view .LVU124
 575 0004 054B     		ldr	r3, .L67
 576 0006 1868     		ldr	r0, [r3]
 577              	.LVL63:
 540:Core/test/unity.c ****     UnityPrint(UnityStrFail);
ARM GAS  C:\Users\ASUS\AppData\Local\Temp\ccstHO0r.s 			page 29


 578              		.loc 1 540 5 is_stmt 0 view .LVU125
 579 0008 FFF7FEFF 		bl	UnityTestResultsBegin
 580              	.LVL64:
 541:Core/test/unity.c ****     UNITY_OUTPUT_CHAR(':');
 581              		.loc 1 541 5 is_stmt 1 view .LVU126
 582 000c 0448     		ldr	r0, .L67+4
 583 000e FFF7FEFF 		bl	UnityPrint
 584              	.LVL65:
 542:Core/test/unity.c **** }
 585              		.loc 1 542 5 view .LVU127
 586 0012 3A20     		movs	r0, #58
 587 0014 FFF7FEFF 		bl	uart_sendchar
 588              	.LVL66:
 543:Core/test/unity.c **** 
 589              		.loc 1 543 1 is_stmt 0 view .LVU128
 590 0018 08BD     		pop	{r3, pc}
 591              	.L68:
 592 001a 00BF     		.align	2
 593              	.L67:
 594 001c 00000000 		.word	.LANCHOR0
 595 0020 00000000 		.word	.LANCHOR1
 596              		.cfi_endproc
 597              	.LFE147:
 599              		.section	.text.UnityAddMsgIfSpecified,"ax",%progbits
 600              		.align	1
 601              		.syntax unified
 602              		.thumb
 603              		.thumb_func
 604              		.fpu fpv4-sp-d16
 606              	UnityAddMsgIfSpecified:
 607              	.LVL67:
 608              	.LFB149:
 571:Core/test/unity.c **** #ifdef UNITY_PRINT_TEST_CONTEXT
 609              		.loc 1 571 1 is_stmt 1 view -0
 610              		.cfi_startproc
 611              		@ args = 0, pretend = 0, frame = 0
 612              		@ frame_needed = 0, uses_anonymous_args = 0
 571:Core/test/unity.c **** #ifdef UNITY_PRINT_TEST_CONTEXT
 613              		.loc 1 571 1 is_stmt 0 view .LVU130
 614 0000 38B5     		push	{r3, r4, r5, lr}
 615              	.LCFI7:
 616              		.cfi_def_cfa_offset 16
 617              		.cfi_offset 3, -16
 618              		.cfi_offset 4, -12
 619              		.cfi_offset 5, -8
 620              		.cfi_offset 14, -4
 621 0002 0446     		mov	r4, r0
 577:Core/test/unity.c ****     {
 622              		.loc 1 577 5 is_stmt 1 view .LVU131
 577:Core/test/unity.c ****     {
 623              		.loc 1 577 14 is_stmt 0 view .LVU132
 624 0004 0E4B     		ldr	r3, .L73
 625 0006 9B68     		ldr	r3, [r3, #8]
 577:Core/test/unity.c ****     {
 626              		.loc 1 577 8 view .LVU133
 627 0008 8BB1     		cbz	r3, .L70
 579:Core/test/unity.c ****         UnityPrint(UnityStrDetail1Name);
ARM GAS  C:\Users\ASUS\AppData\Local\Temp\ccstHO0r.s 			page 30


 628              		.loc 1 579 9 is_stmt 1 view .LVU134
 629 000a 0E48     		ldr	r0, .L73+4
 630              	.LVL68:
 579:Core/test/unity.c ****         UnityPrint(UnityStrDetail1Name);
 631              		.loc 1 579 9 is_stmt 0 view .LVU135
 632 000c FFF7FEFF 		bl	UnityPrint
 633              	.LVL69:
 580:Core/test/unity.c ****         UnityPrint(Unity.CurrentDetail1);
 634              		.loc 1 580 9 is_stmt 1 view .LVU136
 635 0010 0D48     		ldr	r0, .L73+8
 636 0012 FFF7FEFF 		bl	UnityPrint
 637              	.LVL70:
 581:Core/test/unity.c ****         if (Unity.CurrentDetail2)
 638              		.loc 1 581 9 view .LVU137
 639 0016 0A4D     		ldr	r5, .L73
 640 0018 A868     		ldr	r0, [r5, #8]
 641 001a FFF7FEFF 		bl	UnityPrint
 642              	.LVL71:
 582:Core/test/unity.c ****         {
 643              		.loc 1 582 9 view .LVU138
 582:Core/test/unity.c ****         {
 644              		.loc 1 582 18 is_stmt 0 view .LVU139
 645 001e EB68     		ldr	r3, [r5, #12]
 582:Core/test/unity.c ****         {
 646              		.loc 1 582 12 view .LVU140
 647 0020 2BB1     		cbz	r3, .L70
 584:Core/test/unity.c ****             UnityPrint(Unity.CurrentDetail2);
 648              		.loc 1 584 13 is_stmt 1 view .LVU141
 649 0022 0A48     		ldr	r0, .L73+12
 650 0024 FFF7FEFF 		bl	UnityPrint
 651              	.LVL72:
 585:Core/test/unity.c ****         }
 652              		.loc 1 585 13 view .LVU142
 653 0028 E868     		ldr	r0, [r5, #12]
 654 002a FFF7FEFF 		bl	UnityPrint
 655              	.LVL73:
 656              	.L70:
 589:Core/test/unity.c ****     {
 657              		.loc 1 589 5 view .LVU143
 589:Core/test/unity.c ****     {
 658              		.loc 1 589 8 is_stmt 0 view .LVU144
 659 002e 2CB1     		cbz	r4, .L69
 591:Core/test/unity.c ****         UnityPrint(msg);
 660              		.loc 1 591 9 is_stmt 1 view .LVU145
 661 0030 0448     		ldr	r0, .L73+4
 662 0032 FFF7FEFF 		bl	UnityPrint
 663              	.LVL74:
 592:Core/test/unity.c ****     }
 664              		.loc 1 592 9 view .LVU146
 665 0036 2046     		mov	r0, r4
 666 0038 FFF7FEFF 		bl	UnityPrint
 667              	.LVL75:
 668              	.L69:
 594:Core/test/unity.c **** 
 669              		.loc 1 594 1 is_stmt 0 view .LVU147
 670 003c 38BD     		pop	{r3, r4, r5, pc}
 671              	.LVL76:
ARM GAS  C:\Users\ASUS\AppData\Local\Temp\ccstHO0r.s 			page 31


 672              	.L74:
 594:Core/test/unity.c **** 
 673              		.loc 1 594 1 view .LVU148
 674 003e 00BF     		.align	2
 675              	.L73:
 676 0040 00000000 		.word	.LANCHOR0
 677 0044 00000000 		.word	.LANCHOR2
 678 0048 00000000 		.word	.LANCHOR3
 679 004c 00000000 		.word	.LANCHOR4
 680              		.cfi_endproc
 681              	.LFE149:
 683              		.section	.text.UnityIsOneArrayNull,"ax",%progbits
 684              		.align	1
 685              		.syntax unified
 686              		.thumb
 687              		.thumb_func
 688              		.fpu fpv4-sp-d16
 690              	UnityIsOneArrayNull:
 691              	.LVL77:
 692              	.LFB152:
 661:Core/test/unity.c ****     /* Both are NULL or same pointer */
 693              		.loc 1 661 1 is_stmt 1 view -0
 694              		.cfi_startproc
 695              		@ args = 0, pretend = 0, frame = 0
 696              		@ frame_needed = 0, uses_anonymous_args = 0
 663:Core/test/unity.c **** 
 697              		.loc 1 663 5 view .LVU150
 663:Core/test/unity.c **** 
 698              		.loc 1 663 8 is_stmt 0 view .LVU151
 699 0000 8842     		cmp	r0, r1
 700 0002 1BD0     		beq	.L78
 661:Core/test/unity.c ****     /* Both are NULL or same pointer */
 701              		.loc 1 661 1 view .LVU152
 702 0004 10B5     		push	{r4, lr}
 703              	.LCFI8:
 704              		.cfi_def_cfa_offset 8
 705              		.cfi_offset 4, -8
 706              		.cfi_offset 14, -4
 707 0006 1C46     		mov	r4, r3
 666:Core/test/unity.c ****     {
 708              		.loc 1 666 5 is_stmt 1 view .LVU153
 666:Core/test/unity.c ****     {
 709              		.loc 1 666 8 is_stmt 0 view .LVU154
 710 0008 10B1     		cbz	r0, .L84
 675:Core/test/unity.c ****     {
 711              		.loc 1 675 5 is_stmt 1 view .LVU155
 675:Core/test/unity.c ****     {
 712              		.loc 1 675 8 is_stmt 0 view .LVU156
 713 000a 61B1     		cbz	r1, .L85
 683:Core/test/unity.c **** }
 714              		.loc 1 683 12 view .LVU157
 715 000c 0020     		movs	r0, #0
 716              	.LVL78:
 717              	.L75:
 684:Core/test/unity.c **** 
 718              		.loc 1 684 1 view .LVU158
 719 000e 10BD     		pop	{r4, pc}
ARM GAS  C:\Users\ASUS\AppData\Local\Temp\ccstHO0r.s 			page 32


 720              	.LVL79:
 721              	.L84:
 668:Core/test/unity.c ****         UnityPrint(UnityStrNullPointerForExpected);
 722              		.loc 1 668 9 is_stmt 1 view .LVU159
 723 0010 1046     		mov	r0, r2
 724              	.LVL80:
 668:Core/test/unity.c ****         UnityPrint(UnityStrNullPointerForExpected);
 725              		.loc 1 668 9 is_stmt 0 view .LVU160
 726 0012 FFF7FEFF 		bl	UnityTestResultsFailBegin
 727              	.LVL81:
 669:Core/test/unity.c ****         UnityAddMsgIfSpecified(msg);
 728              		.loc 1 669 9 is_stmt 1 view .LVU161
 729 0016 0A48     		ldr	r0, .L86
 730 0018 FFF7FEFF 		bl	UnityPrint
 731              	.LVL82:
 670:Core/test/unity.c ****         return 1;
 732              		.loc 1 670 9 view .LVU162
 733 001c 2046     		mov	r0, r4
 734 001e FFF7FEFF 		bl	UnityAddMsgIfSpecified
 735              	.LVL83:
 671:Core/test/unity.c ****     }
 736              		.loc 1 671 9 view .LVU163
 671:Core/test/unity.c ****     }
 737              		.loc 1 671 16 is_stmt 0 view .LVU164
 738 0022 0120     		movs	r0, #1
 739 0024 F3E7     		b	.L75
 740              	.LVL84:
 741              	.L85:
 677:Core/test/unity.c ****         UnityPrint(UnityStrNullPointerForActual);
 742              		.loc 1 677 9 is_stmt 1 view .LVU165
 743 0026 1046     		mov	r0, r2
 744              	.LVL85:
 677:Core/test/unity.c ****         UnityPrint(UnityStrNullPointerForActual);
 745              		.loc 1 677 9 is_stmt 0 view .LVU166
 746 0028 FFF7FEFF 		bl	UnityTestResultsFailBegin
 747              	.LVL86:
 678:Core/test/unity.c ****         UnityAddMsgIfSpecified(msg);
 748              		.loc 1 678 9 is_stmt 1 view .LVU167
 749 002c 0548     		ldr	r0, .L86+4
 750 002e FFF7FEFF 		bl	UnityPrint
 751              	.LVL87:
 679:Core/test/unity.c ****         return 1;
 752              		.loc 1 679 9 view .LVU168
 753 0032 2046     		mov	r0, r4
 754 0034 FFF7FEFF 		bl	UnityAddMsgIfSpecified
 755              	.LVL88:
 680:Core/test/unity.c ****     }
 756              		.loc 1 680 9 view .LVU169
 680:Core/test/unity.c ****     }
 757              		.loc 1 680 16 is_stmt 0 view .LVU170
 758 0038 0120     		movs	r0, #1
 759 003a E8E7     		b	.L75
 760              	.LVL89:
 761              	.L78:
 762              	.LCFI9:
 763              		.cfi_def_cfa_offset 0
 764              		.cfi_restore 4
ARM GAS  C:\Users\ASUS\AppData\Local\Temp\ccstHO0r.s 			page 33


 765              		.cfi_restore 14
 663:Core/test/unity.c **** 
 766              		.loc 1 663 38 view .LVU171
 767 003c 0020     		movs	r0, #0
 768              	.LVL90:
 684:Core/test/unity.c **** 
 769              		.loc 1 684 1 view .LVU172
 770 003e 7047     		bx	lr
 771              	.L87:
 772              		.align	2
 773              	.L86:
 774 0040 00000000 		.word	.LANCHOR5
 775 0044 00000000 		.word	.LANCHOR6
 776              		.cfi_endproc
 777              	.LFE152:
 779              		.section	.text.UnityPrintExpectedAndActualStrings,"ax",%progbits
 780              		.align	1
 781              		.syntax unified
 782              		.thumb
 783              		.thumb_func
 784              		.fpu fpv4-sp-d16
 786              	UnityPrintExpectedAndActualStrings:
 787              	.LVL91:
 788              	.LFB150:
 598:Core/test/unity.c ****     UnityPrint(UnityStrExpected);
 789              		.loc 1 598 1 is_stmt 1 view -0
 790              		.cfi_startproc
 791              		@ args = 0, pretend = 0, frame = 0
 792              		@ frame_needed = 0, uses_anonymous_args = 0
 598:Core/test/unity.c ****     UnityPrint(UnityStrExpected);
 793              		.loc 1 598 1 is_stmt 0 view .LVU174
 794 0000 38B5     		push	{r3, r4, r5, lr}
 795              	.LCFI10:
 796              		.cfi_def_cfa_offset 16
 797              		.cfi_offset 3, -16
 798              		.cfi_offset 4, -12
 799              		.cfi_offset 5, -8
 800              		.cfi_offset 14, -4
 801 0002 0546     		mov	r5, r0
 802 0004 0C46     		mov	r4, r1
 599:Core/test/unity.c ****     if (expected != NULL)
 803              		.loc 1 599 5 is_stmt 1 view .LVU175
 804 0006 1148     		ldr	r0, .L94
 805              	.LVL92:
 599:Core/test/unity.c ****     if (expected != NULL)
 806              		.loc 1 599 5 is_stmt 0 view .LVU176
 807 0008 FFF7FEFF 		bl	UnityPrint
 808              	.LVL93:
 600:Core/test/unity.c ****     {
 809              		.loc 1 600 5 is_stmt 1 view .LVU177
 600:Core/test/unity.c ****     {
 810              		.loc 1 600 8 is_stmt 0 view .LVU178
 811 000c B5B1     		cbz	r5, .L89
 602:Core/test/unity.c ****         UnityPrint(expected);
 812              		.loc 1 602 9 is_stmt 1 view .LVU179
 813 000e 2720     		movs	r0, #39
 814 0010 FFF7FEFF 		bl	uart_sendchar
ARM GAS  C:\Users\ASUS\AppData\Local\Temp\ccstHO0r.s 			page 34


 815              	.LVL94:
 603:Core/test/unity.c ****         UNITY_OUTPUT_CHAR('\'');
 816              		.loc 1 603 9 view .LVU180
 817 0014 2846     		mov	r0, r5
 818 0016 FFF7FEFF 		bl	UnityPrint
 819              	.LVL95:
 604:Core/test/unity.c ****     }
 820              		.loc 1 604 9 view .LVU181
 821 001a 2720     		movs	r0, #39
 822 001c FFF7FEFF 		bl	uart_sendchar
 823              	.LVL96:
 824              	.L90:
 610:Core/test/unity.c ****     if (actual != NULL)
 825              		.loc 1 610 5 view .LVU182
 826 0020 0B48     		ldr	r0, .L94+4
 827 0022 FFF7FEFF 		bl	UnityPrint
 828              	.LVL97:
 611:Core/test/unity.c ****     {
 829              		.loc 1 611 5 view .LVU183
 611:Core/test/unity.c ****     {
 830              		.loc 1 611 8 is_stmt 0 view .LVU184
 831 0026 6CB1     		cbz	r4, .L91
 613:Core/test/unity.c ****         UnityPrint(actual);
 832              		.loc 1 613 9 is_stmt 1 view .LVU185
 833 0028 2720     		movs	r0, #39
 834 002a FFF7FEFF 		bl	uart_sendchar
 835              	.LVL98:
 614:Core/test/unity.c ****         UNITY_OUTPUT_CHAR('\'');
 836              		.loc 1 614 9 view .LVU186
 837 002e 2046     		mov	r0, r4
 838 0030 FFF7FEFF 		bl	UnityPrint
 839              	.LVL99:
 615:Core/test/unity.c ****     }
 840              		.loc 1 615 9 view .LVU187
 841 0034 2720     		movs	r0, #39
 842 0036 FFF7FEFF 		bl	uart_sendchar
 843              	.LVL100:
 844              	.L88:
 621:Core/test/unity.c **** 
 845              		.loc 1 621 1 is_stmt 0 view .LVU188
 846 003a 38BD     		pop	{r3, r4, r5, pc}
 847              	.LVL101:
 848              	.L89:
 608:Core/test/unity.c ****     }
 849              		.loc 1 608 9 is_stmt 1 view .LVU189
 850 003c 0548     		ldr	r0, .L94+8
 851 003e FFF7FEFF 		bl	UnityPrint
 852              	.LVL102:
 853 0042 EDE7     		b	.L90
 854              	.L91:
 619:Core/test/unity.c ****     }
 855              		.loc 1 619 9 view .LVU190
 856 0044 0348     		ldr	r0, .L94+8
 857 0046 FFF7FEFF 		bl	UnityPrint
 858              	.LVL103:
 621:Core/test/unity.c **** 
 859              		.loc 1 621 1 is_stmt 0 view .LVU191
ARM GAS  C:\Users\ASUS\AppData\Local\Temp\ccstHO0r.s 			page 35


 860 004a F6E7     		b	.L88
 861              	.L95:
 862              		.align	2
 863              	.L94:
 864 004c 00000000 		.word	.LANCHOR7
 865 0050 00000000 		.word	.LANCHOR9
 866 0054 00000000 		.word	.LANCHOR8
 867              		.cfi_endproc
 868              	.LFE150:
 870              		.section	.text.UnityPrintLen,"ax",%progbits
 871              		.align	1
 872              		.global	UnityPrintLen
 873              		.syntax unified
 874              		.thumb
 875              		.thumb_func
 876              		.fpu fpv4-sp-d16
 878              	UnityPrintLen:
 879              	.LVL104:
 880              	.LFB139:
 151:Core/test/unity.c ****     const char* pch = string;
 881              		.loc 1 151 1 is_stmt 1 view -0
 882              		.cfi_startproc
 883              		@ args = 0, pretend = 0, frame = 0
 884              		@ frame_needed = 0, uses_anonymous_args = 0
 152:Core/test/unity.c **** 
 885              		.loc 1 152 5 view .LVU193
 154:Core/test/unity.c ****     {
 886              		.loc 1 154 5 view .LVU194
 154:Core/test/unity.c ****     {
 887              		.loc 1 154 8 is_stmt 0 view .LVU195
 888 0000 20B1     		cbz	r0, .L108
 151:Core/test/unity.c ****     const char* pch = string;
 889              		.loc 1 151 1 view .LVU196
 890 0002 70B5     		push	{r4, r5, r6, lr}
 891              	.LCFI11:
 892              		.cfi_def_cfa_offset 16
 893              		.cfi_offset 4, -16
 894              		.cfi_offset 5, -12
 895              		.cfi_offset 6, -8
 896              		.cfi_offset 14, -4
 897 0004 0D46     		mov	r5, r1
 898 0006 0646     		mov	r6, r0
 152:Core/test/unity.c **** 
 899              		.loc 1 152 17 view .LVU197
 900 0008 0446     		mov	r4, r0
 901 000a 03E0     		b	.L97
 902              	.L108:
 903              	.LCFI12:
 904              		.cfi_def_cfa_offset 0
 905              		.cfi_restore 4
 906              		.cfi_restore 5
 907              		.cfi_restore 6
 908              		.cfi_restore 14
 152:Core/test/unity.c **** 
 909              		.loc 1 152 17 view .LVU198
 910 000c 7047     		bx	lr
 911              	.LVL105:
ARM GAS  C:\Users\ASUS\AppData\Local\Temp\ccstHO0r.s 			page 36


 912              	.L109:
 913              	.LCFI13:
 914              		.cfi_def_cfa_offset 16
 915              		.cfi_offset 4, -16
 916              		.cfi_offset 5, -12
 917              		.cfi_offset 6, -8
 918              		.cfi_offset 14, -4
 161:Core/test/unity.c ****             }
 919              		.loc 1 161 17 is_stmt 1 view .LVU199
 920 000e FFF7FEFF 		bl	uart_sendchar
 921              	.LVL106:
 922              	.L100:
 182:Core/test/unity.c ****         }
 923              		.loc 1 182 13 view .LVU200
 182:Core/test/unity.c ****         }
 924              		.loc 1 182 16 is_stmt 0 view .LVU201
 925 0012 0134     		adds	r4, r4, #1
 926              	.LVL107:
 927              	.L97:
 156:Core/test/unity.c ****         {
 928              		.loc 1 156 15 is_stmt 1 view .LVU202
 156:Core/test/unity.c ****         {
 929              		.loc 1 156 16 is_stmt 0 view .LVU203
 930 0014 2078     		ldrb	r0, [r4]	@ zero_extendqisi2
 156:Core/test/unity.c ****         {
 931              		.loc 1 156 15 view .LVU204
 932 0016 20B3     		cbz	r0, .L96
 156:Core/test/unity.c ****         {
 933              		.loc 1 156 44 discriminator 1 view .LVU205
 934 0018 A31B     		subs	r3, r4, r6
 156:Core/test/unity.c ****         {
 935              		.loc 1 156 21 discriminator 1 view .LVU206
 936 001a AB42     		cmp	r3, r5
 937 001c 21D2     		bcs	.L96
 159:Core/test/unity.c ****             {
 938              		.loc 1 159 13 is_stmt 1 view .LVU207
 159:Core/test/unity.c ****             {
 939              		.loc 1 159 31 is_stmt 0 view .LVU208
 940 001e A0F12003 		sub	r3, r0, #32
 941 0022 DBB2     		uxtb	r3, r3
 159:Core/test/unity.c ****             {
 942              		.loc 1 159 16 view .LVU209
 943 0024 5E2B     		cmp	r3, #94
 944 0026 F2D9     		bls	.L109
 164:Core/test/unity.c ****             {
 945              		.loc 1 164 18 is_stmt 1 view .LVU210
 164:Core/test/unity.c ****             {
 946              		.loc 1 164 21 is_stmt 0 view .LVU211
 947 0028 0D28     		cmp	r0, #13
 948 002a 0CD0     		beq	.L110
 170:Core/test/unity.c ****             {
 949              		.loc 1 170 18 is_stmt 1 view .LVU212
 170:Core/test/unity.c ****             {
 950              		.loc 1 170 21 is_stmt 0 view .LVU213
 951 002c 0A28     		cmp	r0, #10
 952 002e 11D0     		beq	.L111
 178:Core/test/unity.c ****                 UNITY_OUTPUT_CHAR('x');
ARM GAS  C:\Users\ASUS\AppData\Local\Temp\ccstHO0r.s 			page 37


 953              		.loc 1 178 17 is_stmt 1 view .LVU214
 954 0030 5C20     		movs	r0, #92
 955 0032 FFF7FEFF 		bl	uart_sendchar
 956              	.LVL108:
 179:Core/test/unity.c ****                 UnityPrintNumberHex((UNITY_UINT)*pch, 2);
 957              		.loc 1 179 17 view .LVU215
 958 0036 7820     		movs	r0, #120
 959 0038 FFF7FEFF 		bl	uart_sendchar
 960              	.LVL109:
 180:Core/test/unity.c ****             }
 961              		.loc 1 180 17 view .LVU216
 962 003c 0221     		movs	r1, #2
 963 003e 2078     		ldrb	r0, [r4]	@ zero_extendqisi2
 964 0040 FFF7FEFF 		bl	UnityPrintNumberHex
 965              	.LVL110:
 966 0044 E5E7     		b	.L100
 967              	.L110:
 166:Core/test/unity.c ****                 UNITY_OUTPUT_CHAR('r');
 968              		.loc 1 166 17 view .LVU217
 969 0046 5C20     		movs	r0, #92
 970 0048 FFF7FEFF 		bl	uart_sendchar
 971              	.LVL111:
 167:Core/test/unity.c ****             }
 972              		.loc 1 167 17 view .LVU218
 973 004c 7220     		movs	r0, #114
 974 004e FFF7FEFF 		bl	uart_sendchar
 975              	.LVL112:
 976 0052 DEE7     		b	.L100
 977              	.L111:
 172:Core/test/unity.c ****                 UNITY_OUTPUT_CHAR('n');
 978              		.loc 1 172 17 view .LVU219
 979 0054 5C20     		movs	r0, #92
 980 0056 FFF7FEFF 		bl	uart_sendchar
 981              	.LVL113:
 173:Core/test/unity.c ****             }
 982              		.loc 1 173 17 view .LVU220
 983 005a 6E20     		movs	r0, #110
 984 005c FFF7FEFF 		bl	uart_sendchar
 985              	.LVL114:
 986 0060 D7E7     		b	.L100
 987              	.L96:
 185:Core/test/unity.c **** 
 988              		.loc 1 185 1 is_stmt 0 view .LVU221
 989 0062 70BD     		pop	{r4, r5, r6, pc}
 185:Core/test/unity.c **** 
 990              		.loc 1 185 1 view .LVU222
 991              		.cfi_endproc
 992              	.LFE139:
 994              		.section	.text.UnityPrintExpectedAndActualStringsLen,"ax",%progbits
 995              		.align	1
 996              		.syntax unified
 997              		.thumb
 998              		.thumb_func
 999              		.fpu fpv4-sp-d16
 1001              	UnityPrintExpectedAndActualStringsLen:
 1002              	.LVL115:
 1003              	.LFB151:
ARM GAS  C:\Users\ASUS\AppData\Local\Temp\ccstHO0r.s 			page 38


 627:Core/test/unity.c ****     UnityPrint(UnityStrExpected);
 1004              		.loc 1 627 1 is_stmt 1 view -0
 1005              		.cfi_startproc
 1006              		@ args = 0, pretend = 0, frame = 0
 1007              		@ frame_needed = 0, uses_anonymous_args = 0
 627:Core/test/unity.c ****     UnityPrint(UnityStrExpected);
 1008              		.loc 1 627 1 is_stmt 0 view .LVU224
 1009 0000 70B5     		push	{r4, r5, r6, lr}
 1010              	.LCFI14:
 1011              		.cfi_def_cfa_offset 16
 1012              		.cfi_offset 4, -16
 1013              		.cfi_offset 5, -12
 1014              		.cfi_offset 6, -8
 1015              		.cfi_offset 14, -4
 1016 0002 0546     		mov	r5, r0
 1017 0004 0C46     		mov	r4, r1
 1018 0006 1646     		mov	r6, r2
 628:Core/test/unity.c ****     if (expected != NULL)
 1019              		.loc 1 628 5 is_stmt 1 view .LVU225
 1020 0008 1248     		ldr	r0, .L118
 1021              	.LVL116:
 628:Core/test/unity.c ****     if (expected != NULL)
 1022              		.loc 1 628 5 is_stmt 0 view .LVU226
 1023 000a FFF7FEFF 		bl	UnityPrint
 1024              	.LVL117:
 629:Core/test/unity.c ****     {
 1025              		.loc 1 629 5 is_stmt 1 view .LVU227
 629:Core/test/unity.c ****     {
 1026              		.loc 1 629 8 is_stmt 0 view .LVU228
 1027 000e C5B1     		cbz	r5, .L113
 631:Core/test/unity.c ****         UnityPrintLen(expected, length);
 1028              		.loc 1 631 9 is_stmt 1 view .LVU229
 1029 0010 2720     		movs	r0, #39
 1030 0012 FFF7FEFF 		bl	uart_sendchar
 1031              	.LVL118:
 632:Core/test/unity.c ****         UNITY_OUTPUT_CHAR('\'');
 1032              		.loc 1 632 9 view .LVU230
 1033 0016 3146     		mov	r1, r6
 1034 0018 2846     		mov	r0, r5
 1035 001a FFF7FEFF 		bl	UnityPrintLen
 1036              	.LVL119:
 633:Core/test/unity.c ****     }
 1037              		.loc 1 633 9 view .LVU231
 1038 001e 2720     		movs	r0, #39
 1039 0020 FFF7FEFF 		bl	uart_sendchar
 1040              	.LVL120:
 1041              	.L114:
 639:Core/test/unity.c ****     if (actual != NULL)
 1042              		.loc 1 639 5 view .LVU232
 1043 0024 0C48     		ldr	r0, .L118+4
 1044 0026 FFF7FEFF 		bl	UnityPrint
 1045              	.LVL121:
 640:Core/test/unity.c ****     {
 1046              		.loc 1 640 5 view .LVU233
 640:Core/test/unity.c ****     {
 1047              		.loc 1 640 8 is_stmt 0 view .LVU234
 1048 002a 74B1     		cbz	r4, .L115
ARM GAS  C:\Users\ASUS\AppData\Local\Temp\ccstHO0r.s 			page 39


 642:Core/test/unity.c ****         UnityPrintLen(actual, length);
 1049              		.loc 1 642 9 is_stmt 1 view .LVU235
 1050 002c 2720     		movs	r0, #39
 1051 002e FFF7FEFF 		bl	uart_sendchar
 1052              	.LVL122:
 643:Core/test/unity.c ****         UNITY_OUTPUT_CHAR('\'');
 1053              		.loc 1 643 9 view .LVU236
 1054 0032 3146     		mov	r1, r6
 1055 0034 2046     		mov	r0, r4
 1056 0036 FFF7FEFF 		bl	UnityPrintLen
 1057              	.LVL123:
 644:Core/test/unity.c ****     }
 1058              		.loc 1 644 9 view .LVU237
 1059 003a 2720     		movs	r0, #39
 1060 003c FFF7FEFF 		bl	uart_sendchar
 1061              	.LVL124:
 1062              	.L112:
 650:Core/test/unity.c **** 
 1063              		.loc 1 650 1 is_stmt 0 view .LVU238
 1064 0040 70BD     		pop	{r4, r5, r6, pc}
 1065              	.LVL125:
 1066              	.L113:
 637:Core/test/unity.c ****     }
 1067              		.loc 1 637 9 is_stmt 1 view .LVU239
 1068 0042 0648     		ldr	r0, .L118+8
 1069 0044 FFF7FEFF 		bl	UnityPrint
 1070              	.LVL126:
 1071 0048 ECE7     		b	.L114
 1072              	.L115:
 648:Core/test/unity.c ****     }
 1073              		.loc 1 648 9 view .LVU240
 1074 004a 0448     		ldr	r0, .L118+8
 1075 004c FFF7FEFF 		bl	UnityPrint
 1076              	.LVL127:
 650:Core/test/unity.c **** 
 1077              		.loc 1 650 1 is_stmt 0 view .LVU241
 1078 0050 F6E7     		b	.L112
 1079              	.L119:
 1080 0052 00BF     		.align	2
 1081              	.L118:
 1082 0054 00000000 		.word	.LANCHOR7
 1083 0058 00000000 		.word	.LANCHOR9
 1084 005c 00000000 		.word	.LANCHOR8
 1085              		.cfi_endproc
 1086              	.LFE151:
 1088              		.section	.text.UnityPrintNumberByStyle,"ax",%progbits
 1089              		.align	1
 1090              		.global	UnityPrintNumberByStyle
 1091              		.syntax unified
 1092              		.thumb
 1093              		.thumb_func
 1094              		.fpu fpv4-sp-d16
 1096              	UnityPrintNumberByStyle:
 1097              	.LVL128:
 1098              	.LFB140:
 189:Core/test/unity.c ****     if ((style & UNITY_DISPLAY_RANGE_INT) == UNITY_DISPLAY_RANGE_INT)
 1099              		.loc 1 189 1 is_stmt 1 view -0
ARM GAS  C:\Users\ASUS\AppData\Local\Temp\ccstHO0r.s 			page 40


 1100              		.cfi_startproc
 1101              		@ args = 0, pretend = 0, frame = 0
 1102              		@ frame_needed = 0, uses_anonymous_args = 0
 189:Core/test/unity.c ****     if ((style & UNITY_DISPLAY_RANGE_INT) == UNITY_DISPLAY_RANGE_INT)
 1103              		.loc 1 189 1 is_stmt 0 view .LVU243
 1104 0000 38B5     		push	{r3, r4, r5, lr}
 1105              	.LCFI15:
 1106              		.cfi_def_cfa_offset 16
 1107              		.cfi_offset 3, -16
 1108              		.cfi_offset 4, -12
 1109              		.cfi_offset 5, -8
 1110              		.cfi_offset 14, -4
 1111 0002 0546     		mov	r5, r0
 1112 0004 0C46     		mov	r4, r1
 190:Core/test/unity.c ****     {
 1113              		.loc 1 190 5 is_stmt 1 view .LVU244
 190:Core/test/unity.c ****     {
 1114              		.loc 1 190 8 is_stmt 0 view .LVU245
 1115 0006 11F0100F 		tst	r1, #16
 1116 000a 2FD0     		beq	.L121
 192:Core/test/unity.c ****         {
 1117              		.loc 1 192 9 is_stmt 1 view .LVU246
 192:Core/test/unity.c ****         {
 1118              		.loc 1 192 12 is_stmt 0 view .LVU247
 1119 000c 9129     		cmp	r1, #145
 1120 000e 02D0     		beq	.L130
 223:Core/test/unity.c ****         }
 1121              		.loc 1 223 13 is_stmt 1 view .LVU248
 1122 0010 FFF7FEFF 		bl	UnityPrintNumber
 1123              	.LVL129:
 1124              	.L120:
 236:Core/test/unity.c **** 
 1125              		.loc 1 236 1 is_stmt 0 view .LVU249
 1126 0014 38BD     		pop	{r3, r4, r5, pc}
 1127              	.LVL130:
 1128              	.L130:
 195:Core/test/unity.c ****             if ((number <= 126) && (number >= 32))
 1129              		.loc 1 195 13 is_stmt 1 view .LVU250
 1130 0016 2720     		movs	r0, #39
 1131              	.LVL131:
 195:Core/test/unity.c ****             if ((number <= 126) && (number >= 32))
 1132              		.loc 1 195 13 is_stmt 0 view .LVU251
 1133 0018 FFF7FEFF 		bl	uart_sendchar
 1134              	.LVL132:
 196:Core/test/unity.c ****             {
 1135              		.loc 1 196 13 is_stmt 1 view .LVU252
 196:Core/test/unity.c ****             {
 1136              		.loc 1 196 33 is_stmt 0 view .LVU253
 1137 001c A5F12003 		sub	r3, r5, #32
 196:Core/test/unity.c ****             {
 1138              		.loc 1 196 16 view .LVU254
 1139 0020 5E2B     		cmp	r3, #94
 1140 0022 11D9     		bls	.L131
 201:Core/test/unity.c ****             {
 1141              		.loc 1 201 18 is_stmt 1 view .LVU255
 201:Core/test/unity.c ****             {
 1142              		.loc 1 201 21 is_stmt 0 view .LVU256
ARM GAS  C:\Users\ASUS\AppData\Local\Temp\ccstHO0r.s 			page 41


 1143 0024 0D2D     		cmp	r5, #13
 1144 0026 13D0     		beq	.L132
 207:Core/test/unity.c ****             {
 1145              		.loc 1 207 18 is_stmt 1 view .LVU257
 207:Core/test/unity.c ****             {
 1146              		.loc 1 207 21 is_stmt 0 view .LVU258
 1147 0028 0A2D     		cmp	r5, #10
 1148 002a 18D0     		beq	.L133
 215:Core/test/unity.c ****                 UNITY_OUTPUT_CHAR('x');
 1149              		.loc 1 215 17 is_stmt 1 view .LVU259
 1150 002c 5C20     		movs	r0, #92
 1151 002e FFF7FEFF 		bl	uart_sendchar
 1152              	.LVL133:
 216:Core/test/unity.c ****                 UnityPrintNumberHex((UNITY_UINT)number, 2);
 1153              		.loc 1 216 17 view .LVU260
 1154 0032 7820     		movs	r0, #120
 1155 0034 FFF7FEFF 		bl	uart_sendchar
 1156              	.LVL134:
 217:Core/test/unity.c ****             }
 1157              		.loc 1 217 17 view .LVU261
 1158 0038 0221     		movs	r1, #2
 1159 003a 2846     		mov	r0, r5
 1160 003c FFF7FEFF 		bl	UnityPrintNumberHex
 1161              	.LVL135:
 1162              	.L124:
 219:Core/test/unity.c ****         }
 1163              		.loc 1 219 13 view .LVU262
 1164 0040 2720     		movs	r0, #39
 1165 0042 FFF7FEFF 		bl	uart_sendchar
 1166              	.LVL136:
 1167 0046 E5E7     		b	.L120
 1168              	.L131:
 198:Core/test/unity.c ****             }
 1169              		.loc 1 198 17 view .LVU263
 1170 0048 E8B2     		uxtb	r0, r5
 1171 004a FFF7FEFF 		bl	uart_sendchar
 1172              	.LVL137:
 1173 004e F7E7     		b	.L124
 1174              	.L132:
 203:Core/test/unity.c ****                 UNITY_OUTPUT_CHAR('r');
 1175              		.loc 1 203 17 view .LVU264
 1176 0050 5C20     		movs	r0, #92
 1177 0052 FFF7FEFF 		bl	uart_sendchar
 1178              	.LVL138:
 204:Core/test/unity.c ****             }
 1179              		.loc 1 204 17 view .LVU265
 1180 0056 7220     		movs	r0, #114
 1181 0058 FFF7FEFF 		bl	uart_sendchar
 1182              	.LVL139:
 1183 005c F0E7     		b	.L124
 1184              	.L133:
 209:Core/test/unity.c ****                 UNITY_OUTPUT_CHAR('n');
 1185              		.loc 1 209 17 view .LVU266
 1186 005e 5C20     		movs	r0, #92
 1187 0060 FFF7FEFF 		bl	uart_sendchar
 1188              	.LVL140:
 210:Core/test/unity.c ****             }
ARM GAS  C:\Users\ASUS\AppData\Local\Temp\ccstHO0r.s 			page 42


 1189              		.loc 1 210 17 view .LVU267
 1190 0064 6E20     		movs	r0, #110
 1191 0066 FFF7FEFF 		bl	uart_sendchar
 1192              	.LVL141:
 1193 006a E9E7     		b	.L124
 1194              	.LVL142:
 1195              	.L121:
 226:Core/test/unity.c ****     {
 1196              		.loc 1 226 10 view .LVU268
 226:Core/test/unity.c ****     {
 1197              		.loc 1 226 13 is_stmt 0 view .LVU269
 1198 006c 11F0200F 		tst	r1, #32
 1199 0070 02D0     		beq	.L128
 228:Core/test/unity.c ****     }
 1200              		.loc 1 228 9 is_stmt 1 view .LVU270
 1201 0072 FFF7FEFF 		bl	UnityPrintNumberUnsigned
 1202              	.LVL143:
 228:Core/test/unity.c ****     }
 1203              		.loc 1 228 9 is_stmt 0 view .LVU271
 1204 0076 CDE7     		b	.L120
 1205              	.LVL144:
 1206              	.L128:
 232:Core/test/unity.c ****         UNITY_OUTPUT_CHAR('x');
 1207              		.loc 1 232 9 is_stmt 1 view .LVU272
 1208 0078 3020     		movs	r0, #48
 1209              	.LVL145:
 232:Core/test/unity.c ****         UNITY_OUTPUT_CHAR('x');
 1210              		.loc 1 232 9 is_stmt 0 view .LVU273
 1211 007a FFF7FEFF 		bl	uart_sendchar
 1212              	.LVL146:
 233:Core/test/unity.c ****         UnityPrintNumberHex((UNITY_UINT)number, (char)((style & 0xF) * 2));
 1213              		.loc 1 233 9 is_stmt 1 view .LVU274
 1214 007e 7820     		movs	r0, #120
 1215 0080 FFF7FEFF 		bl	uart_sendchar
 1216              	.LVL147:
 234:Core/test/unity.c ****     }
 1217              		.loc 1 234 9 view .LVU275
 1218 0084 04F00F01 		and	r1, r4, #15
 1219 0088 4900     		lsls	r1, r1, #1
 1220 008a 2846     		mov	r0, r5
 1221 008c FFF7FEFF 		bl	UnityPrintNumberHex
 1222              	.LVL148:
 236:Core/test/unity.c **** 
 1223              		.loc 1 236 1 is_stmt 0 view .LVU276
 1224 0090 C0E7     		b	.L120
 1225              		.cfi_endproc
 1226              	.LFE140:
 1228              		.section	.text.UnityPrintMask,"ax",%progbits
 1229              		.align	1
 1230              		.global	UnityPrintMask
 1231              		.syntax unified
 1232              		.thumb
 1233              		.thumb_func
 1234              		.fpu fpv4-sp-d16
 1236              	UnityPrintMask:
 1237              	.LVL149:
 1238              	.LFB144:
ARM GAS  C:\Users\ASUS\AppData\Local\Temp\ccstHO0r.s 			page 43


 300:Core/test/unity.c ****     UNITY_UINT current_bit = (UNITY_UINT)1 << (UNITY_INT_WIDTH - 1);
 1239              		.loc 1 300 1 is_stmt 1 view -0
 1240              		.cfi_startproc
 1241              		@ args = 0, pretend = 0, frame = 0
 1242              		@ frame_needed = 0, uses_anonymous_args = 0
 300:Core/test/unity.c ****     UNITY_UINT current_bit = (UNITY_UINT)1 << (UNITY_INT_WIDTH - 1);
 1243              		.loc 1 300 1 is_stmt 0 view .LVU278
 1244 0000 F8B5     		push	{r3, r4, r5, r6, r7, lr}
 1245              	.LCFI16:
 1246              		.cfi_def_cfa_offset 24
 1247              		.cfi_offset 3, -24
 1248              		.cfi_offset 4, -20
 1249              		.cfi_offset 5, -16
 1250              		.cfi_offset 6, -12
 1251              		.cfi_offset 7, -8
 1252              		.cfi_offset 14, -4
 1253 0002 0646     		mov	r6, r0
 1254 0004 0F46     		mov	r7, r1
 301:Core/test/unity.c ****     UNITY_INT32 i;
 1255              		.loc 1 301 5 is_stmt 1 view .LVU279
 1256              	.LVL150:
 302:Core/test/unity.c **** 
 1257              		.loc 1 302 5 view .LVU280
 304:Core/test/unity.c ****     {
 1258              		.loc 1 304 5 view .LVU281
 304:Core/test/unity.c ****     {
 1259              		.loc 1 304 12 is_stmt 0 view .LVU282
 1260 0006 0025     		movs	r5, #0
 301:Core/test/unity.c ****     UNITY_INT32 i;
 1261              		.loc 1 301 16 view .LVU283
 1262 0008 4FF00044 		mov	r4, #-2147483648
 304:Core/test/unity.c ****     {
 1263              		.loc 1 304 5 view .LVU284
 1264 000c 04E0     		b	.L135
 1265              	.LVL151:
 1266              	.L137:
 314:Core/test/unity.c ****             }
 1267              		.loc 1 314 17 is_stmt 1 view .LVU285
 1268 000e 3020     		movs	r0, #48
 1269 0010 FFF7FEFF 		bl	uart_sendchar
 1270              	.LVL152:
 1271              	.L138:
 321:Core/test/unity.c ****     }
 1272              		.loc 1 321 9 discriminator 2 view .LVU286
 321:Core/test/unity.c ****     }
 1273              		.loc 1 321 21 is_stmt 0 discriminator 2 view .LVU287
 1274 0014 6408     		lsrs	r4, r4, #1
 1275              	.LVL153:
 304:Core/test/unity.c ****     {
 1276              		.loc 1 304 38 is_stmt 1 discriminator 2 view .LVU288
 304:Core/test/unity.c ****     {
 1277              		.loc 1 304 39 is_stmt 0 discriminator 2 view .LVU289
 1278 0016 0135     		adds	r5, r5, #1
 1279              	.LVL154:
 1280              	.L135:
 304:Core/test/unity.c ****     {
 1281              		.loc 1 304 17 is_stmt 1 discriminator 1 view .LVU290
ARM GAS  C:\Users\ASUS\AppData\Local\Temp\ccstHO0r.s 			page 44


 304:Core/test/unity.c ****     {
 1282              		.loc 1 304 5 is_stmt 0 discriminator 1 view .LVU291
 1283 0018 1F2D     		cmp	r5, #31
 1284 001a 0BDC     		bgt	.L141
 306:Core/test/unity.c ****         {
 1285              		.loc 1 306 9 is_stmt 1 view .LVU292
 306:Core/test/unity.c ****         {
 1286              		.loc 1 306 12 is_stmt 0 view .LVU293
 1287 001c 3442     		tst	r4, r6
 1288 001e 05D0     		beq	.L136
 308:Core/test/unity.c ****             {
 1289              		.loc 1 308 13 is_stmt 1 view .LVU294
 308:Core/test/unity.c ****             {
 1290              		.loc 1 308 16 is_stmt 0 view .LVU295
 1291 0020 3C42     		tst	r4, r7
 1292 0022 F4D0     		beq	.L137
 310:Core/test/unity.c ****             }
 1293              		.loc 1 310 17 is_stmt 1 view .LVU296
 1294 0024 3120     		movs	r0, #49
 1295 0026 FFF7FEFF 		bl	uart_sendchar
 1296              	.LVL155:
 1297 002a F3E7     		b	.L138
 1298              	.L136:
 319:Core/test/unity.c ****         }
 1299              		.loc 1 319 13 view .LVU297
 1300 002c 5820     		movs	r0, #88
 1301 002e FFF7FEFF 		bl	uart_sendchar
 1302              	.LVL156:
 1303 0032 EFE7     		b	.L138
 1304              	.L141:
 323:Core/test/unity.c **** 
 1305              		.loc 1 323 1 is_stmt 0 view .LVU298
 1306 0034 F8BD     		pop	{r3, r4, r5, r6, r7, pc}
 323:Core/test/unity.c **** 
 1307              		.loc 1 323 1 view .LVU299
 1308              		.cfi_endproc
 1309              	.LFE144:
 1311              		.section	.rodata.UnityPrintFloat.str1.4,"aMS",%progbits,1
 1312              		.align	2
 1313              	.LC1:
 1314 0000 3000     		.ascii	"0\000"
 1315 0002 0000     		.align	2
 1316              	.LC2:
 1317 0004 6E616E00 		.ascii	"nan\000"
 1318              		.align	2
 1319              	.LC3:
 1320 0008 696E6600 		.ascii	"inf\000"
 1321              		.section	.text.UnityPrintFloat,"ax",%progbits
 1322              		.align	1
 1323              		.global	UnityPrintFloat
 1324              		.syntax unified
 1325              		.thumb
 1326              		.thumb_func
 1327              		.fpu fpv4-sp-d16
 1329              	UnityPrintFloat:
 1330              	.LVL157:
 1331              	.LFB145:
ARM GAS  C:\Users\ASUS\AppData\Local\Temp\ccstHO0r.s 			page 45


 335:Core/test/unity.c **** #ifdef UNITY_INCLUDE_DOUBLE
 1332              		.loc 1 335 1 is_stmt 1 view -0
 1333              		.cfi_startproc
 1334              		@ args = 0, pretend = 0, frame = 16
 1335              		@ frame_needed = 0, uses_anonymous_args = 0
 335:Core/test/unity.c **** #ifdef UNITY_INCLUDE_DOUBLE
 1336              		.loc 1 335 1 is_stmt 0 view .LVU301
 1337 0000 F0B5     		push	{r4, r5, r6, r7, lr}
 1338              	.LCFI17:
 1339              		.cfi_def_cfa_offset 20
 1340              		.cfi_offset 4, -20
 1341              		.cfi_offset 5, -16
 1342              		.cfi_offset 6, -12
 1343              		.cfi_offset 7, -8
 1344              		.cfi_offset 14, -4
 1345 0002 2DED028B 		vpush.64	{d8}
 1346              	.LCFI18:
 1347              		.cfi_def_cfa_offset 28
 1348              		.cfi_offset 80, -28
 1349              		.cfi_offset 81, -24
 1350 0006 85B0     		sub	sp, sp, #20
 1351              	.LCFI19:
 1352              		.cfi_def_cfa_offset 48
 1353 0008 B0EE408A 		vmov.f32	s16, s0
 341:Core/test/unity.c ****     static const UNITY_INT32 min_scaled = 1000000;
 1354              		.loc 1 341 5 is_stmt 1 view .LVU302
 342:Core/test/unity.c ****     static const UNITY_INT32 max_scaled = 10000000;
 1355              		.loc 1 342 5 view .LVU303
 343:Core/test/unity.c **** #endif
 1356              		.loc 1 343 5 view .LVU304
 346:Core/test/unity.c **** 
 1357              		.loc 1 346 5 view .LVU305
 1358              	.LVL158:
 349:Core/test/unity.c ****     {
 1359              		.loc 1 349 5 view .LVU306
 349:Core/test/unity.c ****     {
 1360              		.loc 1 349 8 is_stmt 0 view .LVU307
 1361 000c B5EEC00A 		vcmpe.f32	s0, #0
 1362 0010 F1EE10FA 		vmrs	APSR_nzcv, FPSCR
 1363 0014 31D4     		bmi	.L188
 1364              	.LVL159:
 1365              	.L143:
 356:Core/test/unity.c ****     {
 1366              		.loc 1 356 5 is_stmt 1 view .LVU308
 356:Core/test/unity.c ****     {
 1367              		.loc 1 356 8 is_stmt 0 view .LVU309
 1368 0016 B5EE408A 		vcmp.f32	s16, #0
 1369 001a F1EE10FA 		vmrs	APSR_nzcv, FPSCR
 1370 001e 32D0     		beq	.L189
 360:Core/test/unity.c ****     {
 1371              		.loc 1 360 10 is_stmt 1 view .LVU310
 360:Core/test/unity.c ****     {
 1372              		.loc 1 360 13 is_stmt 0 view .LVU311
 1373 0020 B4EE488A 		vcmp.f32	s16, s16
 1374 0024 F1EE10FA 		vmrs	APSR_nzcv, FPSCR
 1375 0028 34D6     		bvs	.L190
 364:Core/test/unity.c ****     {
ARM GAS  C:\Users\ASUS\AppData\Local\Temp\ccstHO0r.s 			page 46


 1376              		.loc 1 364 10 is_stmt 1 view .LVU312
 364:Core/test/unity.c ****     {
 1377              		.loc 1 364 14 is_stmt 0 view .LVU313
 1378 002a F0EEC87A 		vabs.f32	s15, s16
 364:Core/test/unity.c ****     {
 1379              		.loc 1 364 13 view .LVU314
 1380 002e 9FED927A 		vldr.32	s14, .L195
 1381 0032 F4EE477A 		vcmp.f32	s15, s14
 1382 0036 F1EE10FA 		vmrs	APSR_nzcv, FPSCR
 1383 003a 2FDC     		bgt	.L191
 1384              	.LBB2:
 370:Core/test/unity.c ****         UNITY_INT32 n;
 1385              		.loc 1 370 9 is_stmt 1 view .LVU315
 1386              	.LVL160:
 371:Core/test/unity.c ****         int         exponent = 0;
 1387              		.loc 1 371 9 view .LVU316
 372:Core/test/unity.c ****         int         decimals;
 1388              		.loc 1 372 9 view .LVU317
 373:Core/test/unity.c ****         int         digits;
 1389              		.loc 1 373 9 view .LVU318
 374:Core/test/unity.c ****         char        buf[16] = {0};
 1390              		.loc 1 374 9 view .LVU319
 375:Core/test/unity.c **** 
 1391              		.loc 1 375 9 view .LVU320
 375:Core/test/unity.c **** 
 1392              		.loc 1 375 21 is_stmt 0 view .LVU321
 1393 003c 0023     		movs	r3, #0
 1394 003e 0093     		str	r3, [sp]
 1395 0040 0193     		str	r3, [sp, #4]
 1396 0042 0293     		str	r3, [sp, #8]
 1397 0044 0393     		str	r3, [sp, #12]
 384:Core/test/unity.c ****         {
 1398              		.loc 1 384 9 is_stmt 1 view .LVU322
 384:Core/test/unity.c ****         {
 1399              		.loc 1 384 12 is_stmt 0 view .LVU323
 1400 0046 F7EE007A 		vmov.f32	s15, #1.0e+0
 1401 004a B4EEE78A 		vcmpe.f32	s16, s15
 1402 004e F1EE10FA 		vmrs	APSR_nzcv, FPSCR
 1403 0052 36D4     		bmi	.L192
 393:Core/test/unity.c ****         {
 1404              		.loc 1 393 14 is_stmt 1 view .LVU324
 393:Core/test/unity.c ****         {
 1405              		.loc 1 393 17 is_stmt 0 view .LVU325
 1406 0054 DFED897A 		vldr.32	s15, .L195+4
 1407 0058 B4EEE78A 		vcmpe.f32	s16, s15
 1408 005c F1EE10FA 		vmrs	APSR_nzcv, FPSCR
 1409 0060 77DC     		bgt	.L181
 1410              	.LBB3:
 409:Core/test/unity.c ****             n_int = (UNITY_INT32)number;
 1411              		.loc 1 409 13 is_stmt 1 view .LVU326
 1412              	.LVL161:
 410:Core/test/unity.c ****             number -= (UNITY_DOUBLE)n_int;
 1413              		.loc 1 410 13 view .LVU327
 410:Core/test/unity.c ****             number -= (UNITY_DOUBLE)n_int;
 1414              		.loc 1 410 19 is_stmt 0 view .LVU328
 1415 0062 FDEEC87A 		vcvt.s32.f32	s15, s16
 1416 0066 17EE904A 		vmov	r4, s15	@ int
ARM GAS  C:\Users\ASUS\AppData\Local\Temp\ccstHO0r.s 			page 47


 1417              	.LVL162:
 411:Core/test/unity.c **** 
 1418              		.loc 1 411 13 is_stmt 1 view .LVU329
 411:Core/test/unity.c **** 
 1419              		.loc 1 411 23 is_stmt 0 view .LVU330
 1420 006a F8EEE77A 		vcvt.f32.s32	s15, s15
 411:Core/test/unity.c **** 
 1421              		.loc 1 411 20 view .LVU331
 1422 006e 38EE678A 		vsub.f32	s16, s16, s15
 1423              	.LVL163:
 413:Core/test/unity.c **** 
 1424              		.loc 1 413 13 is_stmt 1 view .LVU332
 409:Core/test/unity.c ****             n_int = (UNITY_INT32)number;
 1425              		.loc 1 409 26 is_stmt 0 view .LVU333
 1426 0072 F7EE007A 		vmov.f32	s15, #1.0e+0
 1427              	.LBE3:
 372:Core/test/unity.c ****         int         decimals;
 1428              		.loc 1 372 21 view .LVU334
 1429 0076 0027     		movs	r7, #0
 1430              	.LBB4:
 413:Core/test/unity.c **** 
 1431              		.loc 1 413 19 view .LVU335
 1432 0078 85E0     		b	.L160
 1433              	.LVL164:
 1434              	.L188:
 413:Core/test/unity.c **** 
 1435              		.loc 1 413 19 view .LVU336
 1436              	.LBE4:
 1437              	.LBE2:
 351:Core/test/unity.c ****         number = -number;
 1438              		.loc 1 351 9 is_stmt 1 view .LVU337
 1439 007a 2D20     		movs	r0, #45
 1440 007c FFF7FEFF 		bl	uart_sendchar
 1441              	.LVL165:
 352:Core/test/unity.c ****     }
 1442              		.loc 1 352 9 view .LVU338
 352:Core/test/unity.c ****     }
 1443              		.loc 1 352 16 is_stmt 0 view .LVU339
 1444 0080 B1EE488A 		vneg.f32	s16, s16
 1445              	.LVL166:
 352:Core/test/unity.c ****     }
 1446              		.loc 1 352 16 view .LVU340
 1447 0084 C7E7     		b	.L143
 1448              	.L189:
 358:Core/test/unity.c ****     }
 1449              		.loc 1 358 9 is_stmt 1 view .LVU341
 1450 0086 7E48     		ldr	r0, .L195+8
 1451 0088 FFF7FEFF 		bl	UnityPrint
 1452              	.LVL167:
 1453              	.L142:
 491:Core/test/unity.c **** #endif /* ! UNITY_EXCLUDE_FLOAT_PRINT */
 1454              		.loc 1 491 1 is_stmt 0 view .LVU342
 1455 008c 05B0     		add	sp, sp, #20
 1456              	.LCFI20:
 1457              		.cfi_remember_state
 1458              		.cfi_def_cfa_offset 28
 1459              		@ sp needed
ARM GAS  C:\Users\ASUS\AppData\Local\Temp\ccstHO0r.s 			page 48


 1460 008e BDEC028B 		vldm	sp!, {d8}
 1461              	.LCFI21:
 1462              		.cfi_restore 80
 1463              		.cfi_restore 81
 1464              		.cfi_def_cfa_offset 20
 1465 0092 F0BD     		pop	{r4, r5, r6, r7, pc}
 1466              	.LVL168:
 1467              	.L190:
 1468              	.LCFI22:
 1469              		.cfi_restore_state
 362:Core/test/unity.c ****     }
 1470              		.loc 1 362 9 is_stmt 1 view .LVU343
 1471 0094 7B48     		ldr	r0, .L195+12
 1472 0096 FFF7FEFF 		bl	UnityPrint
 1473              	.LVL169:
 1474 009a F7E7     		b	.L142
 1475              	.L191:
 366:Core/test/unity.c ****     }
 1476              		.loc 1 366 9 view .LVU344
 1477 009c 7A48     		ldr	r0, .L195+16
 1478 009e FFF7FEFF 		bl	UnityPrint
 1479              	.LVL170:
 1480 00a2 F3E7     		b	.L142
 1481              	.LVL171:
 1482              	.L151:
 1483              	.LBB10:
 1484              	.LBB5:
 388:Core/test/unity.c ****             while (number * factor < (UNITY_DOUBLE)min_scaled) { factor *= 10.0f; exponent--; }
 1485              		.loc 1 388 66 discriminator 2 view .LVU345
 388:Core/test/unity.c ****             while (number * factor < (UNITY_DOUBLE)min_scaled) { factor *= 10.0f; exponent--; }
 1486              		.loc 1 388 73 is_stmt 0 discriminator 2 view .LVU346
 1487 00a4 DFED797A 		vldr.32	s15, .L195+20
 1488 00a8 28EE278A 		vmul.f32	s16, s16, s15
 1489              	.LVL172:
 388:Core/test/unity.c ****             while (number * factor < (UNITY_DOUBLE)min_scaled) { factor *= 10.0f; exponent--; }
 1490              		.loc 1 388 83 is_stmt 1 discriminator 2 view .LVU347
 388:Core/test/unity.c ****             while (number * factor < (UNITY_DOUBLE)min_scaled) { factor *= 10.0f; exponent--; }
 1491              		.loc 1 388 92 is_stmt 0 discriminator 2 view .LVU348
 1492 00ac 0A3F     		subs	r7, r7, #10
 1493              	.LVL173:
 1494              	.L149:
 388:Core/test/unity.c ****             while (number * factor < (UNITY_DOUBLE)min_scaled) { factor *= 10.0f; exponent--; }
 1495              		.loc 1 388 19 is_stmt 1 discriminator 1 view .LVU349
 1496 00ae DFED787A 		vldr.32	s15, .L195+24
 1497 00b2 B4EEE78A 		vcmpe.f32	s16, s15
 1498 00b6 F1EE10FA 		vmrs	APSR_nzcv, FPSCR
 1499 00ba F3D4     		bmi	.L151
 386:Core/test/unity.c **** 
 1500              		.loc 1 386 26 is_stmt 0 view .LVU350
 1501 00bc B7EE007A 		vmov.f32	s14, #1.0e+0
 1502 00c0 06E0     		b	.L152
 1503              	.LVL174:
 1504              	.L192:
 386:Core/test/unity.c **** 
 1505              		.loc 1 386 26 view .LVU351
 1506              	.LBE5:
 372:Core/test/unity.c ****         int         decimals;
ARM GAS  C:\Users\ASUS\AppData\Local\Temp\ccstHO0r.s 			page 49


 1507              		.loc 1 372 21 view .LVU352
 1508 00c2 0027     		movs	r7, #0
 1509 00c4 F3E7     		b	.L149
 1510              	.LVL175:
 1511              	.L153:
 1512              	.LBB6:
 389:Core/test/unity.c **** 
 1513              		.loc 1 389 66 is_stmt 1 discriminator 2 view .LVU353
 389:Core/test/unity.c **** 
 1514              		.loc 1 389 73 is_stmt 0 discriminator 2 view .LVU354
 1515 00c6 F2EE047A 		vmov.f32	s15, #1.0e+1
 1516 00ca 27EE277A 		vmul.f32	s14, s14, s15
 1517              	.LVL176:
 389:Core/test/unity.c **** 
 1518              		.loc 1 389 83 is_stmt 1 discriminator 2 view .LVU355
 389:Core/test/unity.c **** 
 1519              		.loc 1 389 91 is_stmt 0 discriminator 2 view .LVU356
 1520 00ce 013F     		subs	r7, r7, #1
 1521              	.LVL177:
 1522              	.L152:
 389:Core/test/unity.c **** 
 1523              		.loc 1 389 19 is_stmt 1 discriminator 1 view .LVU357
 389:Core/test/unity.c **** 
 1524              		.loc 1 389 27 is_stmt 0 discriminator 1 view .LVU358
 1525 00d0 68EE077A 		vmul.f32	s15, s16, s14
 389:Core/test/unity.c **** 
 1526              		.loc 1 389 19 discriminator 1 view .LVU359
 1527 00d4 DFED6F6A 		vldr.32	s13, .L195+28
 1528 00d8 F4EEE67A 		vcmpe.f32	s15, s13
 1529 00dc F1EE10FA 		vmrs	APSR_nzcv, FPSCR
 1530 00e0 F1D4     		bmi	.L153
 389:Core/test/unity.c **** 
 1531              		.loc 1 389 19 discriminator 1 view .LVU360
 1532              	.LBE6:
 370:Core/test/unity.c ****         UNITY_INT32 n;
 1533              		.loc 1 370 21 view .LVU361
 1534 00e2 0024     		movs	r4, #0
 1535              	.LVL178:
 1536              	.L154:
 419:Core/test/unity.c **** 
 1537              		.loc 1 419 9 is_stmt 1 view .LVU362
 419:Core/test/unity.c **** 
 1538              		.loc 1 419 35 is_stmt 0 view .LVU363
 1539 00e4 37EEA77A 		vadd.f32	s14, s15, s15
 419:Core/test/unity.c **** 
 1540              		.loc 1 419 14 view .LVU364
 1541 00e8 BDEEC77A 		vcvt.s32.f32	s14, s14
 1542 00ec 17EE103A 		vmov	r3, s14	@ int
 419:Core/test/unity.c **** 
 1543              		.loc 1 419 45 view .LVU365
 1544 00f0 0133     		adds	r3, r3, #1
 419:Core/test/unity.c **** 
 1545              		.loc 1 419 11 view .LVU366
 1546 00f2 03EBD373 		add	r3, r3, r3, lsr #31
 1547 00f6 5A10     		asrs	r2, r3, #1
 1548              	.LVL179:
 423:Core/test/unity.c ****             n--;
ARM GAS  C:\Users\ASUS\AppData\Local\Temp\ccstHO0r.s 			page 50


 1549              		.loc 1 423 9 is_stmt 1 view .LVU367
 423:Core/test/unity.c ****             n--;
 1550              		.loc 1 423 12 is_stmt 0 view .LVU368
 1551 00f8 13F0020F 		tst	r3, #2
 1552 00fc 0DD0     		beq	.L162
 423:Core/test/unity.c ****             n--;
 1553              		.loc 1 423 26 discriminator 1 view .LVU369
 1554 00fe 07EE102A 		vmov	s14, r2	@ int
 1555 0102 B8EEC78A 		vcvt.f32.s32	s16, s14
 423:Core/test/unity.c ****             n--;
 1556              		.loc 1 423 42 discriminator 1 view .LVU370
 1557 0106 38EE678A 		vsub.f32	s16, s16, s15
 423:Core/test/unity.c ****             n--;
 1558              		.loc 1 423 21 discriminator 1 view .LVU371
 1559 010a F6EE007A 		vmov.f32	s15, #5.0e-1
 1560              	.LVL180:
 423:Core/test/unity.c ****             n--;
 1561              		.loc 1 423 21 discriminator 1 view .LVU372
 1562 010e B4EE678A 		vcmp.f32	s16, s15
 1563 0112 F1EE10FA 		vmrs	APSR_nzcv, FPSCR
 1564 0116 00D1     		bne	.L162
 424:Core/test/unity.c **** #endif
 1565              		.loc 1 424 13 is_stmt 1 view .LVU373
 424:Core/test/unity.c **** #endif
 1566              		.loc 1 424 14 is_stmt 0 view .LVU374
 1567 0118 013A     		subs	r2, r2, #1
 1568              	.LVL181:
 1569              	.L162:
 427:Core/test/unity.c **** 
 1570              		.loc 1 427 9 is_stmt 1 view .LVU375
 427:Core/test/unity.c **** 
 1571              		.loc 1 427 11 is_stmt 0 view .LVU376
 1572 011a 1444     		add	r4, r4, r2
 1573              	.LVL182:
 429:Core/test/unity.c ****         {
 1574              		.loc 1 429 9 is_stmt 1 view .LVU377
 429:Core/test/unity.c ****         {
 1575              		.loc 1 429 12 is_stmt 0 view .LVU378
 1576 011c 5E4B     		ldr	r3, .L195+32
 1577 011e 9C42     		cmp	r4, r3
 1578 0120 01DB     		blt	.L163
 431:Core/test/unity.c ****             exponent++;
 1579              		.loc 1 431 13 is_stmt 1 view .LVU379
 1580              	.LVL183:
 432:Core/test/unity.c ****         }
 1581              		.loc 1 432 13 view .LVU380
 432:Core/test/unity.c ****         }
 1582              		.loc 1 432 21 is_stmt 0 view .LVU381
 1583 0122 0137     		adds	r7, r7, #1
 1584              	.LVL184:
 431:Core/test/unity.c ****             exponent++;
 1585              		.loc 1 431 15 view .LVU382
 1586 0124 5D4C     		ldr	r4, .L195+36
 1587              	.LVL185:
 1588              	.L163:
 436:Core/test/unity.c ****         exponent += decimals;
 1589              		.loc 1 436 9 is_stmt 1 view .LVU383
ARM GAS  C:\Users\ASUS\AppData\Local\Temp\ccstHO0r.s 			page 51


 436:Core/test/unity.c ****         exponent += decimals;
 1590              		.loc 1 436 37 is_stmt 0 view .LVU384
 1591 0126 07F10A03 		add	r3, r7, #10
 436:Core/test/unity.c ****         exponent += decimals;
 1592              		.loc 1 436 87 view .LVU385
 1593 012a 0A2B     		cmp	r3, #10
 1594 012c 31D8     		bhi	.L182
 436:Core/test/unity.c ****         exponent += decimals;
 1595              		.loc 1 436 87 discriminator 1 view .LVU386
 1596 012e 7E42     		rsbs	r6, r7, #0
 1597              	.L164:
 1598              	.LVL186:
 437:Core/test/unity.c **** 
 1599              		.loc 1 437 9 is_stmt 1 discriminator 4 view .LVU387
 437:Core/test/unity.c **** 
 1600              		.loc 1 437 18 is_stmt 0 discriminator 4 view .LVU388
 1601 0130 3744     		add	r7, r7, r6
 1602              	.LVL187:
 440:Core/test/unity.c ****         {
 1603              		.loc 1 440 9 is_stmt 1 discriminator 4 view .LVU389
 440:Core/test/unity.c ****         {
 1604              		.loc 1 440 15 is_stmt 0 discriminator 4 view .LVU390
 1605 0132 37E0     		b	.L165
 1606              	.LVL188:
 1607              	.L157:
 1608              	.LBB7:
 397:Core/test/unity.c ****             while (number / divisor > (UNITY_DOUBLE)max_scaled) { divisor *= 10.0f; exponent++; }
 1609              		.loc 1 397 67 is_stmt 1 discriminator 2 view .LVU391
 397:Core/test/unity.c ****             while (number / divisor > (UNITY_DOUBLE)max_scaled) { divisor *= 10.0f; exponent++; }
 1610              		.loc 1 397 75 is_stmt 0 discriminator 2 view .LVU392
 1611 0134 DFED557A 		vldr.32	s15, .L195+20
 1612 0138 88EE278A 		vdiv.f32	s16, s16, s15
 1613              	.LVL189:
 397:Core/test/unity.c ****             while (number / divisor > (UNITY_DOUBLE)max_scaled) { divisor *= 10.0f; exponent++; }
 1614              		.loc 1 397 85 is_stmt 1 discriminator 2 view .LVU393
 397:Core/test/unity.c ****             while (number / divisor > (UNITY_DOUBLE)max_scaled) { divisor *= 10.0f; exponent++; }
 1615              		.loc 1 397 94 is_stmt 0 discriminator 2 view .LVU394
 1616 013c 0A37     		adds	r7, r7, #10
 1617              	.LVL190:
 1618              	.L155:
 397:Core/test/unity.c ****             while (number / divisor > (UNITY_DOUBLE)max_scaled) { divisor *= 10.0f; exponent++; }
 1619              		.loc 1 397 19 is_stmt 1 discriminator 1 view .LVU395
 1620 013e DFED587A 		vldr.32	s15, .L195+40
 1621 0142 B4EEE78A 		vcmpe.f32	s16, s15
 1622 0146 F1EE10FA 		vmrs	APSR_nzcv, FPSCR
 1623 014a F3DC     		bgt	.L157
 395:Core/test/unity.c **** 
 1624              		.loc 1 395 26 is_stmt 0 view .LVU396
 1625 014c B7EE007A 		vmov.f32	s14, #1.0e+0
 1626 0150 06E0     		b	.L158
 1627              	.LVL191:
 1628              	.L181:
 395:Core/test/unity.c **** 
 1629              		.loc 1 395 26 view .LVU397
 1630              	.LBE7:
 372:Core/test/unity.c ****         int         decimals;
 1631              		.loc 1 372 21 view .LVU398
ARM GAS  C:\Users\ASUS\AppData\Local\Temp\ccstHO0r.s 			page 52


 1632 0152 0027     		movs	r7, #0
 1633 0154 F3E7     		b	.L155
 1634              	.LVL192:
 1635              	.L159:
 1636              	.LBB8:
 398:Core/test/unity.c **** 
 1637              		.loc 1 398 67 is_stmt 1 discriminator 2 view .LVU399
 398:Core/test/unity.c **** 
 1638              		.loc 1 398 75 is_stmt 0 discriminator 2 view .LVU400
 1639 0156 F2EE047A 		vmov.f32	s15, #1.0e+1
 1640 015a 27EE277A 		vmul.f32	s14, s14, s15
 1641              	.LVL193:
 398:Core/test/unity.c **** 
 1642              		.loc 1 398 85 is_stmt 1 discriminator 2 view .LVU401
 398:Core/test/unity.c **** 
 1643              		.loc 1 398 93 is_stmt 0 discriminator 2 view .LVU402
 1644 015e 0137     		adds	r7, r7, #1
 1645              	.LVL194:
 1646              	.L158:
 398:Core/test/unity.c **** 
 1647              		.loc 1 398 19 is_stmt 1 discriminator 1 view .LVU403
 398:Core/test/unity.c **** 
 1648              		.loc 1 398 27 is_stmt 0 discriminator 1 view .LVU404
 1649 0160 C8EE077A 		vdiv.f32	s15, s16, s14
 398:Core/test/unity.c **** 
 1650              		.loc 1 398 19 discriminator 1 view .LVU405
 1651 0164 DFED456A 		vldr.32	s13, .L195+4
 1652 0168 F4EEE67A 		vcmpe.f32	s15, s13
 1653 016c F1EE10FA 		vmrs	APSR_nzcv, FPSCR
 1654 0170 F1DC     		bgt	.L159
 398:Core/test/unity.c **** 
 1655              		.loc 1 398 19 discriminator 1 view .LVU406
 1656              	.LBE8:
 370:Core/test/unity.c ****         UNITY_INT32 n;
 1657              		.loc 1 370 21 view .LVU407
 1658 0172 0024     		movs	r4, #0
 1659 0174 B6E7     		b	.L154
 1660              	.LVL195:
 1661              	.L161:
 1662              	.LBB9:
 413:Core/test/unity.c **** 
 1663              		.loc 1 413 42 is_stmt 1 discriminator 2 view .LVU408
 413:Core/test/unity.c **** 
 1664              		.loc 1 413 48 is_stmt 0 discriminator 2 view .LVU409
 1665 0176 04EB8404 		add	r4, r4, r4, lsl #2
 1666              	.LVL196:
 413:Core/test/unity.c **** 
 1667              		.loc 1 413 48 discriminator 2 view .LVU410
 1668 017a 6400     		lsls	r4, r4, #1
 1669              	.LVL197:
 413:Core/test/unity.c **** 
 1670              		.loc 1 413 55 is_stmt 1 discriminator 2 view .LVU411
 413:Core/test/unity.c **** 
 1671              		.loc 1 413 62 is_stmt 0 discriminator 2 view .LVU412
 1672 017c B2EE047A 		vmov.f32	s14, #1.0e+1
 1673 0180 67EE877A 		vmul.f32	s15, s15, s14
 1674              	.LVL198:
ARM GAS  C:\Users\ASUS\AppData\Local\Temp\ccstHO0r.s 			page 53


 413:Core/test/unity.c **** 
 1675              		.loc 1 413 72 is_stmt 1 discriminator 2 view .LVU413
 413:Core/test/unity.c **** 
 1676              		.loc 1 413 80 is_stmt 0 discriminator 2 view .LVU414
 1677 0184 013F     		subs	r7, r7, #1
 1678              	.LVL199:
 1679              	.L160:
 413:Core/test/unity.c **** 
 1680              		.loc 1 413 19 is_stmt 1 discriminator 1 view .LVU415
 1681 0186 474B     		ldr	r3, .L195+44
 1682 0188 9C42     		cmp	r4, r3
 1683 018a F4DD     		ble	.L161
 415:Core/test/unity.c ****         }
 1684              		.loc 1 415 13 view .LVU416
 415:Core/test/unity.c ****         }
 1685              		.loc 1 415 20 is_stmt 0 view .LVU417
 1686 018c 67EE887A 		vmul.f32	s15, s15, s16
 1687              	.LVL200:
 415:Core/test/unity.c ****         }
 1688              		.loc 1 415 20 view .LVU418
 1689 0190 A8E7     		b	.L154
 1690              	.LVL201:
 1691              	.L182:
 415:Core/test/unity.c ****         }
 1692              		.loc 1 415 20 view .LVU419
 1693              	.LBE9:
 436:Core/test/unity.c ****         exponent += decimals;
 1694              		.loc 1 436 87 view .LVU420
 1695 0192 0626     		movs	r6, #6
 1696 0194 CCE7     		b	.L164
 1697              	.LVL202:
 1698              	.L167:
 442:Core/test/unity.c ****             decimals--;
 1699              		.loc 1 442 13 is_stmt 1 view .LVU421
 442:Core/test/unity.c ****             decimals--;
 1700              		.loc 1 442 15 is_stmt 0 view .LVU422
 1701 0196 444B     		ldr	r3, .L195+48
 1702 0198 83FB0423 		smull	r2, r3, r3, r4
 1703 019c E417     		asrs	r4, r4, #31
 1704              	.LVL203:
 442:Core/test/unity.c ****             decimals--;
 1705              		.loc 1 442 15 view .LVU423
 1706 019e C4EBA304 		rsb	r4, r4, r3, asr #2
 1707              	.LVL204:
 443:Core/test/unity.c ****         }
 1708              		.loc 1 443 13 is_stmt 1 view .LVU424
 443:Core/test/unity.c ****         }
 1709              		.loc 1 443 21 is_stmt 0 view .LVU425
 1710 01a2 013E     		subs	r6, r6, #1
 1711              	.LVL205:
 1712              	.L165:
 440:Core/test/unity.c ****         {
 1713              		.loc 1 440 15 is_stmt 1 view .LVU426
 1714 01a4 002E     		cmp	r6, #0
 1715 01a6 23DD     		ble	.L183
 440:Core/test/unity.c ****         {
 1716              		.loc 1 440 38 is_stmt 0 discriminator 1 view .LVU427
ARM GAS  C:\Users\ASUS\AppData\Local\Temp\ccstHO0r.s 			page 54


 1717 01a8 3F4A     		ldr	r2, .L195+48
 1718 01aa 82FB0432 		smull	r3, r2, r2, r4
 1719 01ae E317     		asrs	r3, r4, #31
 1720 01b0 C3EBA203 		rsb	r3, r3, r2, asr #2
 1721 01b4 03EB8303 		add	r3, r3, r3, lsl #2
 440:Core/test/unity.c ****         {
 1722              		.loc 1 440 31 discriminator 1 view .LVU428
 1723 01b8 B4EB430F 		cmp	r4, r3, lsl #1
 1724 01bc EBD0     		beq	.L167
 1725 01be 0025     		movs	r5, #0
 1726 01c0 11E0     		b	.L168
 1727              	.LVL206:
 1728              	.L169:
 450:Core/test/unity.c ****             n /= 10;
 1729              		.loc 1 450 13 is_stmt 1 view .LVU429
 450:Core/test/unity.c ****             n /= 10;
 1730              		.loc 1 450 44 is_stmt 0 view .LVU430
 1731 01c2 394A     		ldr	r2, .L195+48
 1732 01c4 82FB0432 		smull	r3, r2, r2, r4
 1733 01c8 E317     		asrs	r3, r4, #31
 1734 01ca C3EBA203 		rsb	r3, r3, r2, asr #2
 1735 01ce 1A46     		mov	r2, r3
 1736 01d0 03EB8303 		add	r3, r3, r3, lsl #2
 1737 01d4 A4EB4303 		sub	r3, r4, r3, lsl #1
 1738              	.LVL207:
 450:Core/test/unity.c ****             n /= 10;
 1739              		.loc 1 450 29 view .LVU431
 1740 01d8 3033     		adds	r3, r3, #48
 450:Core/test/unity.c ****             n /= 10;
 1741              		.loc 1 450 27 view .LVU432
 1742 01da 04A9     		add	r1, sp, #16
 1743 01dc 2944     		add	r1, r1, r5
 1744 01de 01F8103C 		strb	r3, [r1, #-16]
 451:Core/test/unity.c ****         }
 1745              		.loc 1 451 13 is_stmt 1 view .LVU433
 451:Core/test/unity.c ****         }
 1746              		.loc 1 451 15 is_stmt 0 view .LVU434
 1747 01e2 1446     		mov	r4, r2
 1748              	.LVL208:
 450:Core/test/unity.c ****             n /= 10;
 1749              		.loc 1 450 23 view .LVU435
 1750 01e4 0135     		adds	r5, r5, #1
 1751              	.LVL209:
 1752              	.L168:
 448:Core/test/unity.c ****         {
 1753              		.loc 1 448 15 is_stmt 1 view .LVU436
 1754 01e6 002C     		cmp	r4, #0
 1755 01e8 EBD1     		bne	.L169
 448:Core/test/unity.c ****         {
 1756              		.loc 1 448 25 is_stmt 0 discriminator 1 view .LVU437
 1757 01ea AE42     		cmp	r6, r5
 1758 01ec E9DA     		bge	.L169
 1759 01ee 08E0     		b	.L170
 1760              	.LVL210:
 1761              	.L183:
 448:Core/test/unity.c ****         {
 1762              		.loc 1 448 25 discriminator 1 view .LVU438
ARM GAS  C:\Users\ASUS\AppData\Local\Temp\ccstHO0r.s 			page 55


 1763 01f0 0025     		movs	r5, #0
 1764 01f2 F8E7     		b	.L168
 1765              	.LVL211:
 1766              	.L171:
 461:Core/test/unity.c ****         }
 1767              		.loc 1 461 13 is_stmt 1 view .LVU439
 1768 01f4 013D     		subs	r5, r5, #1
 1769              	.LVL212:
 461:Core/test/unity.c ****         }
 1770              		.loc 1 461 13 is_stmt 0 view .LVU440
 1771 01f6 04AB     		add	r3, sp, #16
 1772 01f8 2B44     		add	r3, r3, r5
 1773 01fa 13F8100C 		ldrb	r0, [r3, #-16]	@ zero_extendqisi2
 1774 01fe FFF7FEFF 		bl	uart_sendchar
 1775              	.LVL213:
 1776              	.L170:
 455:Core/test/unity.c ****         {
 1777              		.loc 1 455 15 is_stmt 1 view .LVU441
 1778 0202 002D     		cmp	r5, #0
 1779 0204 05DD     		ble	.L193
 457:Core/test/unity.c ****             {
 1780              		.loc 1 457 13 view .LVU442
 457:Core/test/unity.c ****             {
 1781              		.loc 1 457 16 is_stmt 0 view .LVU443
 1782 0206 AE42     		cmp	r6, r5
 1783 0208 F4D1     		bne	.L171
 459:Core/test/unity.c ****             }
 1784              		.loc 1 459 17 is_stmt 1 view .LVU444
 1785 020a 2E20     		movs	r0, #46
 1786 020c FFF7FEFF 		bl	uart_sendchar
 1787              	.LVL214:
 1788 0210 F0E7     		b	.L171
 1789              	.L193:
 465:Core/test/unity.c ****         {
 1790              		.loc 1 465 9 view .LVU445
 465:Core/test/unity.c ****         {
 1791              		.loc 1 465 12 is_stmt 0 view .LVU446
 1792 0212 002F     		cmp	r7, #0
 1793 0214 3FF43AAF 		beq	.L142
 467:Core/test/unity.c **** 
 1794              		.loc 1 467 13 is_stmt 1 view .LVU447
 1795 0218 6520     		movs	r0, #101
 1796 021a FFF7FEFF 		bl	uart_sendchar
 1797              	.LVL215:
 469:Core/test/unity.c ****             {
 1798              		.loc 1 469 13 view .LVU448
 469:Core/test/unity.c ****             {
 1799              		.loc 1 469 16 is_stmt 0 view .LVU449
 1800 021e 002F     		cmp	r7, #0
 1801 0220 03DB     		blt	.L194
 476:Core/test/unity.c ****             }
 1802              		.loc 1 476 17 is_stmt 1 view .LVU450
 1803 0222 2B20     		movs	r0, #43
 1804 0224 FFF7FEFF 		bl	uart_sendchar
 1805              	.LVL216:
 1806 0228 16E0     		b	.L176
 1807              	.L194:
ARM GAS  C:\Users\ASUS\AppData\Local\Temp\ccstHO0r.s 			page 56


 471:Core/test/unity.c ****                 exponent = -exponent;
 1808              		.loc 1 471 17 view .LVU451
 1809 022a 2D20     		movs	r0, #45
 1810 022c FFF7FEFF 		bl	uart_sendchar
 1811              	.LVL217:
 472:Core/test/unity.c ****             }
 1812              		.loc 1 472 17 view .LVU452
 472:Core/test/unity.c ****             }
 1813              		.loc 1 472 26 is_stmt 0 view .LVU453
 1814 0230 7F42     		rsbs	r7, r7, #0
 1815              	.LVL218:
 472:Core/test/unity.c ****             }
 1816              		.loc 1 472 26 view .LVU454
 1817 0232 11E0     		b	.L176
 1818              	.LVL219:
 1819              	.L177:
 482:Core/test/unity.c ****                 exponent /= 10;
 1820              		.loc 1 482 17 is_stmt 1 view .LVU455
 482:Core/test/unity.c ****                 exponent /= 10;
 1821              		.loc 1 482 55 is_stmt 0 view .LVU456
 1822 0234 1C4A     		ldr	r2, .L195+48
 1823 0236 82FB0732 		smull	r3, r2, r2, r7
 1824 023a FB17     		asrs	r3, r7, #31
 1825 023c C3EBA203 		rsb	r3, r3, r2, asr #2
 1826 0240 1A46     		mov	r2, r3
 1827 0242 03EB8303 		add	r3, r3, r3, lsl #2
 1828 0246 A7EB4303 		sub	r3, r7, r3, lsl #1
 1829              	.LVL220:
 482:Core/test/unity.c ****                 exponent /= 10;
 1830              		.loc 1 482 33 view .LVU457
 1831 024a 3033     		adds	r3, r3, #48
 482:Core/test/unity.c ****                 exponent /= 10;
 1832              		.loc 1 482 31 view .LVU458
 1833 024c 04A9     		add	r1, sp, #16
 1834 024e 2144     		add	r1, r1, r4
 1835 0250 01F8103C 		strb	r3, [r1, #-16]
 483:Core/test/unity.c ****             }
 1836              		.loc 1 483 17 is_stmt 1 view .LVU459
 483:Core/test/unity.c ****             }
 1837              		.loc 1 483 26 is_stmt 0 view .LVU460
 1838 0254 1746     		mov	r7, r2
 1839              	.LVL221:
 482:Core/test/unity.c ****                 exponent /= 10;
 1840              		.loc 1 482 27 view .LVU461
 1841 0256 0134     		adds	r4, r4, #1
 1842              	.LVL222:
 1843              	.L176:
 480:Core/test/unity.c ****             {
 1844              		.loc 1 480 19 is_stmt 1 view .LVU462
 1845 0258 002F     		cmp	r7, #0
 1846 025a EBD1     		bne	.L177
 480:Core/test/unity.c ****             {
 1847              		.loc 1 480 36 is_stmt 0 discriminator 1 view .LVU463
 1848 025c 012C     		cmp	r4, #1
 1849 025e E9DD     		ble	.L177
 1850 0260 06E0     		b	.L178
 1851              	.L179:
ARM GAS  C:\Users\ASUS\AppData\Local\Temp\ccstHO0r.s 			page 57


 487:Core/test/unity.c ****             }
 1852              		.loc 1 487 17 is_stmt 1 view .LVU464
 1853 0262 013C     		subs	r4, r4, #1
 1854              	.LVL223:
 487:Core/test/unity.c ****             }
 1855              		.loc 1 487 17 is_stmt 0 view .LVU465
 1856 0264 04AB     		add	r3, sp, #16
 1857 0266 2344     		add	r3, r3, r4
 1858 0268 13F8100C 		ldrb	r0, [r3, #-16]	@ zero_extendqisi2
 1859 026c FFF7FEFF 		bl	uart_sendchar
 1860              	.LVL224:
 1861              	.L178:
 485:Core/test/unity.c ****             {
 1862              		.loc 1 485 19 is_stmt 1 view .LVU466
 1863 0270 002C     		cmp	r4, #0
 1864 0272 F6DC     		bgt	.L179
 485:Core/test/unity.c ****             {
 1865              		.loc 1 485 19 is_stmt 0 view .LVU467
 1866 0274 0AE7     		b	.L142
 1867              	.L196:
 1868 0276 00BF     		.align	2
 1869              	.L195:
 1870 0278 FFFF7F7F 		.word	2139095039
 1871 027c 8096184B 		.word	1259902592
 1872 0280 00000000 		.word	.LC1
 1873 0284 04000000 		.word	.LC2
 1874 0288 08000000 		.word	.LC3
 1875 028c F9021550 		.word	1343554297
 1876 0290 6F12833A 		.word	981668463
 1877 0294 00247449 		.word	1232348160
 1878 0298 80969800 		.word	10000000
 1879 029c 40420F00 		.word	1000000
 1880 02a0 CA1B0E5A 		.word	1510874058
 1881 02a4 3F420F00 		.word	999999
 1882 02a8 67666666 		.word	1717986919
 1883              	.LBE10:
 1884              		.cfi_endproc
 1885              	.LFE145:
 1887              		.section	.text.UnityConcludeTest,"ax",%progbits
 1888              		.align	1
 1889              		.global	UnityConcludeTest
 1890              		.syntax unified
 1891              		.thumb
 1892              		.thumb_func
 1893              		.fpu fpv4-sp-d16
 1895              	UnityConcludeTest:
 1896              	.LFB148:
 547:Core/test/unity.c ****     if (Unity.CurrentTestIgnored)
 1897              		.loc 1 547 1 is_stmt 1 view -0
 1898              		.cfi_startproc
 1899              		@ args = 0, pretend = 0, frame = 0
 1900              		@ frame_needed = 0, uses_anonymous_args = 0
 1901 0000 08B5     		push	{r3, lr}
 1902              	.LCFI23:
 1903              		.cfi_def_cfa_offset 8
 1904              		.cfi_offset 3, -8
 1905              		.cfi_offset 14, -4
ARM GAS  C:\Users\ASUS\AppData\Local\Temp\ccstHO0r.s 			page 58


 548:Core/test/unity.c ****     {
 1906              		.loc 1 548 5 view .LVU469
 548:Core/test/unity.c ****     {
 1907              		.loc 1 548 14 is_stmt 0 view .LVU470
 1908 0002 104B     		ldr	r3, .L203
 1909 0004 5B6A     		ldr	r3, [r3, #36]
 548:Core/test/unity.c ****     {
 1910              		.loc 1 548 8 view .LVU471
 1911 0006 5BB1     		cbz	r3, .L198
 550:Core/test/unity.c ****     }
 1912              		.loc 1 550 9 is_stmt 1 view .LVU472
 550:Core/test/unity.c ****     }
 1913              		.loc 1 550 14 is_stmt 0 view .LVU473
 1914 0008 0E4A     		ldr	r2, .L203
 1915 000a D369     		ldr	r3, [r2, #28]
 550:Core/test/unity.c ****     }
 1916              		.loc 1 550 26 view .LVU474
 1917 000c 0133     		adds	r3, r3, #1
 1918 000e D361     		str	r3, [r2, #28]
 1919              	.L199:
 562:Core/test/unity.c ****     Unity.CurrentTestIgnored = 0;
 1920              		.loc 1 562 5 is_stmt 1 view .LVU475
 562:Core/test/unity.c ****     Unity.CurrentTestIgnored = 0;
 1921              		.loc 1 562 29 is_stmt 0 view .LVU476
 1922 0010 0C4B     		ldr	r3, .L203
 1923 0012 0022     		movs	r2, #0
 1924 0014 1A62     		str	r2, [r3, #32]
 563:Core/test/unity.c ****     UNITY_PRINT_EXEC_TIME();
 1925              		.loc 1 563 5 is_stmt 1 view .LVU477
 563:Core/test/unity.c ****     UNITY_PRINT_EXEC_TIME();
 1926              		.loc 1 563 30 is_stmt 0 view .LVU478
 1927 0016 5A62     		str	r2, [r3, #36]
 564:Core/test/unity.c ****     UNITY_PRINT_EOL();
 1928              		.loc 1 564 5 is_stmt 1 view .LVU479
 564:Core/test/unity.c ****     UNITY_PRINT_EOL();
 1929              		.loc 1 564 5 view .LVU480
 564:Core/test/unity.c ****     UNITY_PRINT_EOL();
 1930              		.loc 1 564 5 view .LVU481
 565:Core/test/unity.c ****     UNITY_FLUSH_CALL();
 1931              		.loc 1 565 5 view .LVU482
 1932 0018 0A20     		movs	r0, #10
 1933 001a FFF7FEFF 		bl	uart_sendchar
 1934              	.LVL225:
 566:Core/test/unity.c **** }
 1935              		.loc 1 566 5 view .LVU483
 567:Core/test/unity.c **** 
 1936              		.loc 1 567 1 is_stmt 0 view .LVU484
 1937 001e 08BD     		pop	{r3, pc}
 1938              	.L198:
 552:Core/test/unity.c ****     {
 1939              		.loc 1 552 10 is_stmt 1 view .LVU485
 552:Core/test/unity.c ****     {
 1940              		.loc 1 552 20 is_stmt 0 view .LVU486
 1941 0020 084B     		ldr	r3, .L203
 1942 0022 1B6A     		ldr	r3, [r3, #32]
 552:Core/test/unity.c ****     {
 1943              		.loc 1 552 13 view .LVU487
ARM GAS  C:\Users\ASUS\AppData\Local\Temp\ccstHO0r.s 			page 59


 1944 0024 23B1     		cbz	r3, .L202
 559:Core/test/unity.c ****     }
 1945              		.loc 1 559 9 is_stmt 1 view .LVU488
 559:Core/test/unity.c ****     }
 1946              		.loc 1 559 14 is_stmt 0 view .LVU489
 1947 0026 074A     		ldr	r2, .L203
 1948 0028 9369     		ldr	r3, [r2, #24]
 559:Core/test/unity.c ****     }
 1949              		.loc 1 559 27 view .LVU490
 1950 002a 0133     		adds	r3, r3, #1
 1951 002c 9361     		str	r3, [r2, #24]
 1952 002e EFE7     		b	.L199
 1953              	.L202:
 554:Core/test/unity.c ****         UnityPrint(UnityStrPass);
 1954              		.loc 1 554 9 is_stmt 1 view .LVU491
 1955 0030 044B     		ldr	r3, .L203
 1956 0032 1969     		ldr	r1, [r3, #16]
 1957 0034 1868     		ldr	r0, [r3]
 1958 0036 FFF7FEFF 		bl	UnityTestResultsBegin
 1959              	.LVL226:
 555:Core/test/unity.c ****     }
 1960              		.loc 1 555 9 view .LVU492
 1961 003a 0348     		ldr	r0, .L203+4
 1962 003c FFF7FEFF 		bl	UnityPrint
 1963              	.LVL227:
 1964 0040 E6E7     		b	.L199
 1965              	.L204:
 1966 0042 00BF     		.align	2
 1967              	.L203:
 1968 0044 00000000 		.word	.LANCHOR0
 1969 0048 00000000 		.word	.LANCHOR10
 1970              		.cfi_endproc
 1971              	.LFE148:
 1973              		.section	.text.UnityAssertBits,"ax",%progbits
 1974              		.align	1
 1975              		.global	UnityAssertBits
 1976              		.syntax unified
 1977              		.thumb
 1978              		.thumb_func
 1979              		.fpu fpv4-sp-d16
 1981              	UnityAssertBits:
 1982              	.LVL228:
 1983              	.LFB153:
 696:Core/test/unity.c ****     RETURN_IF_FAIL_OR_IGNORE;
 1984              		.loc 1 696 1 view -0
 1985              		.cfi_startproc
 1986              		@ args = 4, pretend = 0, frame = 0
 1987              		@ frame_needed = 0, uses_anonymous_args = 0
 696:Core/test/unity.c ****     RETURN_IF_FAIL_OR_IGNORE;
 1988              		.loc 1 696 1 is_stmt 0 view .LVU494
 1989 0000 F8B5     		push	{r3, r4, r5, r6, r7, lr}
 1990              	.LCFI24:
 1991              		.cfi_def_cfa_offset 24
 1992              		.cfi_offset 3, -24
 1993              		.cfi_offset 4, -20
 1994              		.cfi_offset 5, -16
 1995              		.cfi_offset 6, -12
ARM GAS  C:\Users\ASUS\AppData\Local\Temp\ccstHO0r.s 			page 60


 1996              		.cfi_offset 7, -8
 1997              		.cfi_offset 14, -4
 1998 0002 1546     		mov	r5, r2
 697:Core/test/unity.c **** 
 1999              		.loc 1 697 5 is_stmt 1 view .LVU495
 697:Core/test/unity.c **** 
 2000              		.loc 1 697 5 view .LVU496
 2001 0004 154A     		ldr	r2, .L211
 2002              	.LVL229:
 697:Core/test/unity.c **** 
 2003              		.loc 1 697 5 is_stmt 0 view .LVU497
 2004 0006 126A     		ldr	r2, [r2, #32]
 2005 0008 52B9     		cbnz	r2, .L206
 2006 000a 0446     		mov	r4, r0
 2007 000c 0F46     		mov	r7, r1
 2008 000e 1E46     		mov	r6, r3
 697:Core/test/unity.c **** 
 2009              		.loc 1 697 5 discriminator 2 view .LVU498
 2010 0010 124B     		ldr	r3, .L211
 2011              	.LVL230:
 697:Core/test/unity.c **** 
 2012              		.loc 1 697 5 discriminator 2 view .LVU499
 2013 0012 5B6A     		ldr	r3, [r3, #36]
 2014 0014 23B9     		cbnz	r3, .L206
 697:Core/test/unity.c **** 
 2015              		.loc 1 697 5 is_stmt 1 discriminator 4 view .LVU500
 699:Core/test/unity.c ****     {
 2016              		.loc 1 699 5 discriminator 4 view .LVU501
 699:Core/test/unity.c ****     {
 2017              		.loc 1 699 27 is_stmt 0 discriminator 4 view .LVU502
 2018 0016 81EA0503 		eor	r3, r1, r5
 699:Core/test/unity.c ****     {
 2019              		.loc 1 699 8 discriminator 4 view .LVU503
 2020 001a 0342     		tst	r3, r0
 2021 001c 04D1     		bne	.L210
 709:Core/test/unity.c **** 
 2022              		.loc 1 709 1 view .LVU504
 2023 001e F8BD     		pop	{r3, r4, r5, r6, r7, pc}
 2024              	.LVL231:
 2025              	.L206:
 697:Core/test/unity.c **** 
 2026              		.loc 1 697 5 is_stmt 1 discriminator 3 view .LVU505
 2027 0020 0121     		movs	r1, #1
 2028              	.LVL232:
 697:Core/test/unity.c **** 
 2029              		.loc 1 697 5 is_stmt 0 discriminator 3 view .LVU506
 2030 0022 0F48     		ldr	r0, .L211+4
 2031              	.LVL233:
 697:Core/test/unity.c **** 
 2032              		.loc 1 697 5 discriminator 3 view .LVU507
 2033 0024 FFF7FEFF 		bl	longjmp
 2034              	.LVL234:
 2035              	.L210:
 701:Core/test/unity.c ****         UnityPrint(UnityStrExpected);
 2036              		.loc 1 701 9 is_stmt 1 view .LVU508
 2037 0028 0698     		ldr	r0, [sp, #24]
 2038              	.LVL235:
ARM GAS  C:\Users\ASUS\AppData\Local\Temp\ccstHO0r.s 			page 61


 701:Core/test/unity.c ****         UnityPrint(UnityStrExpected);
 2039              		.loc 1 701 9 is_stmt 0 view .LVU509
 2040 002a FFF7FEFF 		bl	UnityTestResultsFailBegin
 2041              	.LVL236:
 702:Core/test/unity.c ****         UnityPrintMask((UNITY_UINT)mask, (UNITY_UINT)expected);
 2042              		.loc 1 702 9 is_stmt 1 view .LVU510
 2043 002e 0D48     		ldr	r0, .L211+8
 2044 0030 FFF7FEFF 		bl	UnityPrint
 2045              	.LVL237:
 703:Core/test/unity.c ****         UnityPrint(UnityStrWas);
 2046              		.loc 1 703 9 view .LVU511
 2047 0034 3946     		mov	r1, r7
 2048 0036 2046     		mov	r0, r4
 2049 0038 FFF7FEFF 		bl	UnityPrintMask
 2050              	.LVL238:
 704:Core/test/unity.c ****         UnityPrintMask((UNITY_UINT)mask, (UNITY_UINT)actual);
 2051              		.loc 1 704 9 view .LVU512
 2052 003c 0A48     		ldr	r0, .L211+12
 2053 003e FFF7FEFF 		bl	UnityPrint
 2054              	.LVL239:
 705:Core/test/unity.c ****         UnityAddMsgIfSpecified(msg);
 2055              		.loc 1 705 9 view .LVU513
 2056 0042 2946     		mov	r1, r5
 2057 0044 2046     		mov	r0, r4
 2058 0046 FFF7FEFF 		bl	UnityPrintMask
 2059              	.LVL240:
 706:Core/test/unity.c ****         UNITY_FAIL_AND_BAIL;
 2060              		.loc 1 706 9 view .LVU514
 2061 004a 3046     		mov	r0, r6
 2062 004c FFF7FEFF 		bl	UnityAddMsgIfSpecified
 2063              	.LVL241:
 707:Core/test/unity.c ****     }
 2064              		.loc 1 707 9 view .LVU515
 707:Core/test/unity.c ****     }
 2065              		.loc 1 707 9 view .LVU516
 2066 0050 0248     		ldr	r0, .L211
 2067 0052 0121     		movs	r1, #1
 2068 0054 0162     		str	r1, [r0, #32]
 707:Core/test/unity.c ****     }
 2069              		.loc 1 707 9 view .LVU517
 707:Core/test/unity.c ****     }
 2070              		.loc 1 707 9 view .LVU518
 2071 0056 2830     		adds	r0, r0, #40
 2072 0058 FFF7FEFF 		bl	longjmp
 2073              	.LVL242:
 2074              	.L212:
 2075              		.align	2
 2076              	.L211:
 2077 005c 00000000 		.word	.LANCHOR0
 2078 0060 28000000 		.word	.LANCHOR0+40
 2079 0064 00000000 		.word	.LANCHOR7
 2080 0068 00000000 		.word	.LANCHOR9
 2081              		.cfi_endproc
 2082              	.LFE153:
 2084              		.section	.text.UnityAssertEqualNumber,"ax",%progbits
 2085              		.align	1
 2086              		.global	UnityAssertEqualNumber
ARM GAS  C:\Users\ASUS\AppData\Local\Temp\ccstHO0r.s 			page 62


 2087              		.syntax unified
 2088              		.thumb
 2089              		.thumb_func
 2090              		.fpu fpv4-sp-d16
 2092              	UnityAssertEqualNumber:
 2093              	.LVL243:
 2094              	.LFB154:
 717:Core/test/unity.c ****     RETURN_IF_FAIL_OR_IGNORE;
 2095              		.loc 1 717 1 view -0
 2096              		.cfi_startproc
 2097              		@ args = 4, pretend = 0, frame = 0
 2098              		@ frame_needed = 0, uses_anonymous_args = 0
 717:Core/test/unity.c ****     RETURN_IF_FAIL_OR_IGNORE;
 2099              		.loc 1 717 1 is_stmt 0 view .LVU520
 2100 0000 F8B5     		push	{r3, r4, r5, r6, r7, lr}
 2101              	.LCFI25:
 2102              		.cfi_def_cfa_offset 24
 2103              		.cfi_offset 3, -24
 2104              		.cfi_offset 4, -20
 2105              		.cfi_offset 5, -16
 2106              		.cfi_offset 6, -12
 2107              		.cfi_offset 7, -8
 2108              		.cfi_offset 14, -4
 2109 0002 0C46     		mov	r4, r1
 2110 0004 9DF81870 		ldrb	r7, [sp, #24]	@ zero_extendqisi2
 718:Core/test/unity.c **** 
 2111              		.loc 1 718 5 is_stmt 1 view .LVU521
 718:Core/test/unity.c **** 
 2112              		.loc 1 718 5 view .LVU522
 2113 0008 1449     		ldr	r1, .L219
 2114              	.LVL244:
 718:Core/test/unity.c **** 
 2115              		.loc 1 718 5 is_stmt 0 view .LVU523
 2116 000a 096A     		ldr	r1, [r1, #32]
 2117 000c 39B9     		cbnz	r1, .L214
 2118 000e 0546     		mov	r5, r0
 2119 0010 1646     		mov	r6, r2
 718:Core/test/unity.c **** 
 2120              		.loc 1 718 5 discriminator 2 view .LVU524
 2121 0012 124A     		ldr	r2, .L219
 2122              	.LVL245:
 718:Core/test/unity.c **** 
 2123              		.loc 1 718 5 discriminator 2 view .LVU525
 2124 0014 526A     		ldr	r2, [r2, #36]
 2125 0016 12B9     		cbnz	r2, .L214
 718:Core/test/unity.c **** 
 2126              		.loc 1 718 5 is_stmt 1 discriminator 4 view .LVU526
 720:Core/test/unity.c ****     {
 2127              		.loc 1 720 5 discriminator 4 view .LVU527
 720:Core/test/unity.c ****     {
 2128              		.loc 1 720 8 is_stmt 0 discriminator 4 view .LVU528
 2129 0018 A042     		cmp	r0, r4
 2130 001a 04D1     		bne	.L218
 730:Core/test/unity.c **** 
 2131              		.loc 1 730 1 view .LVU529
 2132 001c F8BD     		pop	{r3, r4, r5, r6, r7, pc}
 2133              	.LVL246:
ARM GAS  C:\Users\ASUS\AppData\Local\Temp\ccstHO0r.s 			page 63


 2134              	.L214:
 718:Core/test/unity.c **** 
 2135              		.loc 1 718 5 is_stmt 1 discriminator 3 view .LVU530
 2136 001e 0121     		movs	r1, #1
 2137 0020 0F48     		ldr	r0, .L219+4
 2138              	.LVL247:
 718:Core/test/unity.c **** 
 2139              		.loc 1 718 5 is_stmt 0 discriminator 3 view .LVU531
 2140 0022 FFF7FEFF 		bl	longjmp
 2141              	.LVL248:
 2142              	.L218:
 722:Core/test/unity.c ****         UnityPrint(UnityStrExpected);
 2143              		.loc 1 722 9 is_stmt 1 view .LVU532
 2144 0026 1846     		mov	r0, r3
 2145              	.LVL249:
 722:Core/test/unity.c ****         UnityPrint(UnityStrExpected);
 2146              		.loc 1 722 9 is_stmt 0 view .LVU533
 2147 0028 FFF7FEFF 		bl	UnityTestResultsFailBegin
 2148              	.LVL250:
 723:Core/test/unity.c ****         UnityPrintNumberByStyle(expected, style);
 2149              		.loc 1 723 9 is_stmt 1 view .LVU534
 2150 002c 0D48     		ldr	r0, .L219+8
 2151 002e FFF7FEFF 		bl	UnityPrint
 2152              	.LVL251:
 724:Core/test/unity.c ****         UnityPrint(UnityStrWas);
 2153              		.loc 1 724 9 view .LVU535
 2154 0032 3946     		mov	r1, r7
 2155 0034 2846     		mov	r0, r5
 2156 0036 FFF7FEFF 		bl	UnityPrintNumberByStyle
 2157              	.LVL252:
 725:Core/test/unity.c ****         UnityPrintNumberByStyle(actual, style);
 2158              		.loc 1 725 9 view .LVU536
 2159 003a 0B48     		ldr	r0, .L219+12
 2160 003c FFF7FEFF 		bl	UnityPrint
 2161              	.LVL253:
 726:Core/test/unity.c ****         UnityAddMsgIfSpecified(msg);
 2162              		.loc 1 726 9 view .LVU537
 2163 0040 3946     		mov	r1, r7
 2164 0042 2046     		mov	r0, r4
 2165 0044 FFF7FEFF 		bl	UnityPrintNumberByStyle
 2166              	.LVL254:
 727:Core/test/unity.c ****         UNITY_FAIL_AND_BAIL;
 2167              		.loc 1 727 9 view .LVU538
 2168 0048 3046     		mov	r0, r6
 2169 004a FFF7FEFF 		bl	UnityAddMsgIfSpecified
 2170              	.LVL255:
 728:Core/test/unity.c ****     }
 2171              		.loc 1 728 9 view .LVU539
 728:Core/test/unity.c ****     }
 2172              		.loc 1 728 9 view .LVU540
 2173 004e 0348     		ldr	r0, .L219
 2174 0050 0121     		movs	r1, #1
 2175 0052 0162     		str	r1, [r0, #32]
 728:Core/test/unity.c ****     }
 2176              		.loc 1 728 9 view .LVU541
 728:Core/test/unity.c ****     }
 2177              		.loc 1 728 9 view .LVU542
ARM GAS  C:\Users\ASUS\AppData\Local\Temp\ccstHO0r.s 			page 64


 2178 0054 2830     		adds	r0, r0, #40
 2179 0056 FFF7FEFF 		bl	longjmp
 2180              	.LVL256:
 2181              	.L220:
 2182 005a 00BF     		.align	2
 2183              	.L219:
 2184 005c 00000000 		.word	.LANCHOR0
 2185 0060 28000000 		.word	.LANCHOR0+40
 2186 0064 00000000 		.word	.LANCHOR7
 2187 0068 00000000 		.word	.LANCHOR9
 2188              		.cfi_endproc
 2189              	.LFE154:
 2191              		.section	.text.UnityAssertGreaterOrLessOrEqualNumber,"ax",%progbits
 2192              		.align	1
 2193              		.global	UnityAssertGreaterOrLessOrEqualNumber
 2194              		.syntax unified
 2195              		.thumb
 2196              		.thumb_func
 2197              		.fpu fpv4-sp-d16
 2199              	UnityAssertGreaterOrLessOrEqualNumber:
 2200              	.LVL257:
 2201              	.LFB155:
 739:Core/test/unity.c ****     int failed = 0;
 2202              		.loc 1 739 1 view -0
 2203              		.cfi_startproc
 2204              		@ args = 8, pretend = 0, frame = 0
 2205              		@ frame_needed = 0, uses_anonymous_args = 0
 739:Core/test/unity.c ****     int failed = 0;
 2206              		.loc 1 739 1 is_stmt 0 view .LVU544
 2207 0000 2DE9F041 		push	{r4, r5, r6, r7, r8, lr}
 2208              	.LCFI26:
 2209              		.cfi_def_cfa_offset 24
 2210              		.cfi_offset 4, -24
 2211              		.cfi_offset 5, -20
 2212              		.cfi_offset 6, -16
 2213              		.cfi_offset 7, -12
 2214              		.cfi_offset 8, -8
 2215              		.cfi_offset 14, -4
 2216 0004 1646     		mov	r6, r2
 2217 0006 9DF81C80 		ldrb	r8, [sp, #28]	@ zero_extendqisi2
 740:Core/test/unity.c ****     RETURN_IF_FAIL_OR_IGNORE;
 2218              		.loc 1 740 5 is_stmt 1 view .LVU545
 2219              	.LVL258:
 741:Core/test/unity.c **** 
 2220              		.loc 1 741 5 view .LVU546
 741:Core/test/unity.c **** 
 2221              		.loc 1 741 5 view .LVU547
 2222 000a 324A     		ldr	r2, .L245
 2223              	.LVL259:
 741:Core/test/unity.c **** 
 2224              		.loc 1 741 5 is_stmt 0 view .LVU548
 2225 000c 126A     		ldr	r2, [r2, #32]
 2226 000e DAB9     		cbnz	r2, .L222
 2227 0010 0446     		mov	r4, r0
 2228 0012 0D46     		mov	r5, r1
 2229 0014 1F46     		mov	r7, r3
 741:Core/test/unity.c **** 
ARM GAS  C:\Users\ASUS\AppData\Local\Temp\ccstHO0r.s 			page 65


 2230              		.loc 1 741 5 discriminator 2 view .LVU549
 2231 0016 2F4B     		ldr	r3, .L245
 2232              	.LVL260:
 741:Core/test/unity.c **** 
 2233              		.loc 1 741 5 discriminator 2 view .LVU550
 2234 0018 5B6A     		ldr	r3, [r3, #36]
 2235 001a ABB9     		cbnz	r3, .L222
 741:Core/test/unity.c **** 
 2236              		.loc 1 741 5 is_stmt 1 discriminator 4 view .LVU551
 743:Core/test/unity.c ****     if ((threshold == actual))                               { failed = 1; }
 2237              		.loc 1 743 5 discriminator 4 view .LVU552
 743:Core/test/unity.c ****     if ((threshold == actual))                               { failed = 1; }
 2238              		.loc 1 743 8 is_stmt 0 discriminator 4 view .LVU553
 2239 001c 8842     		cmp	r0, r1
 2240 001e 17D0     		beq	.L240
 2241              	.L224:
 744:Core/test/unity.c **** 
 2242              		.loc 1 744 5 is_stmt 1 view .LVU554
 744:Core/test/unity.c **** 
 2243              		.loc 1 744 8 is_stmt 0 view .LVU555
 2244 0020 AC42     		cmp	r4, r5
 2245 0022 19D0     		beq	.L236
 740:Core/test/unity.c ****     RETURN_IF_FAIL_OR_IGNORE;
 2246              		.loc 1 740 9 view .LVU556
 2247 0024 0023     		movs	r3, #0
 2248              	.L226:
 2249              	.LVL261:
 746:Core/test/unity.c ****     {
 2250              		.loc 1 746 5 is_stmt 1 view .LVU557
 746:Core/test/unity.c ****     {
 2251              		.loc 1 746 8 is_stmt 0 view .LVU558
 2252 0026 18F0100F 		tst	r8, #16
 2253 002a 17D0     		beq	.L227
 748:Core/test/unity.c ****         if ((actual < threshold) && (compare & UNITY_GREATER_THAN)) { failed = 1; }
 2254              		.loc 1 748 9 is_stmt 1 view .LVU559
 748:Core/test/unity.c ****         if ((actual < threshold) && (compare & UNITY_GREATER_THAN)) { failed = 1; }
 2255              		.loc 1 748 12 is_stmt 0 view .LVU560
 2256 002c AC42     		cmp	r4, r5
 2257 002e 03DA     		bge	.L228
 748:Core/test/unity.c ****         if ((actual < threshold) && (compare & UNITY_GREATER_THAN)) { failed = 1; }
 2258              		.loc 1 748 34 discriminator 1 view .LVU561
 2259 0030 16F0040F 		tst	r6, #4
 2260 0034 00D0     		beq	.L228
 748:Core/test/unity.c ****         if ((actual < threshold) && (compare & UNITY_GREATER_THAN)) { failed = 1; }
 2261              		.loc 1 748 78 view .LVU562
 2262 0036 0123     		movs	r3, #1
 2263              	.LVL262:
 2264              	.L228:
 749:Core/test/unity.c ****     }
 2265              		.loc 1 749 9 is_stmt 1 view .LVU563
 749:Core/test/unity.c ****     }
 2266              		.loc 1 749 12 is_stmt 0 view .LVU564
 2267 0038 AC42     		cmp	r4, r5
 2268 003a 02DD     		ble	.L229
 749:Core/test/unity.c ****     }
 2269              		.loc 1 749 34 discriminator 1 view .LVU565
 2270 003c 16F0020F 		tst	r6, #2
ARM GAS  C:\Users\ASUS\AppData\Local\Temp\ccstHO0r.s 			page 66


 2271 0040 17D1     		bne	.L230
 2272              	.L229:
 757:Core/test/unity.c ****     {
 2273              		.loc 1 757 5 is_stmt 1 view .LVU566
 757:Core/test/unity.c ****     {
 2274              		.loc 1 757 8 is_stmt 0 view .LVU567
 2275 0042 B3B9     		cbnz	r3, .L230
 2276              	.LVL263:
 2277              	.L221:
 770:Core/test/unity.c **** 
 2278              		.loc 1 770 1 view .LVU568
 2279 0044 BDE8F081 		pop	{r4, r5, r6, r7, r8, pc}
 2280              	.LVL264:
 2281              	.L222:
 741:Core/test/unity.c **** 
 2282              		.loc 1 741 5 is_stmt 1 discriminator 3 view .LVU569
 2283 0048 0121     		movs	r1, #1
 2284              	.LVL265:
 741:Core/test/unity.c **** 
 2285              		.loc 1 741 5 is_stmt 0 discriminator 3 view .LVU570
 2286 004a 2348     		ldr	r0, .L245+4
 2287              	.LVL266:
 741:Core/test/unity.c **** 
 2288              		.loc 1 741 5 discriminator 3 view .LVU571
 2289 004c FFF7FEFF 		bl	longjmp
 2290              	.LVL267:
 2291              	.L240:
 743:Core/test/unity.c ****     if ((threshold == actual))                               { failed = 1; }
 2292              		.loc 1 743 31 discriminator 1 view .LVU572
 2293 0050 16F0010F 		tst	r6, #1
 2294 0054 E4D0     		beq	.L224
 2295 0056 F5E7     		b	.L221
 2296              	.L236:
 744:Core/test/unity.c **** 
 2297              		.loc 1 744 71 view .LVU573
 2298 0058 0123     		movs	r3, #1
 2299 005a E4E7     		b	.L226
 2300              	.LVL268:
 2301              	.L227:
 753:Core/test/unity.c ****         if (((UNITY_UINT)actual < (UNITY_UINT)threshold) && (compare & UNITY_GREATER_THAN)) { faile
 2302              		.loc 1 753 9 is_stmt 1 view .LVU574
 753:Core/test/unity.c ****         if (((UNITY_UINT)actual < (UNITY_UINT)threshold) && (compare & UNITY_GREATER_THAN)) { faile
 2303              		.loc 1 753 12 is_stmt 0 view .LVU575
 2304 005c A542     		cmp	r5, r4
 2305 005e 03D9     		bls	.L231
 753:Core/test/unity.c ****         if (((UNITY_UINT)actual < (UNITY_UINT)threshold) && (compare & UNITY_GREATER_THAN)) { faile
 2306              		.loc 1 753 58 discriminator 1 view .LVU576
 2307 0060 16F0040F 		tst	r6, #4
 2308 0064 00D0     		beq	.L231
 753:Core/test/unity.c ****         if (((UNITY_UINT)actual < (UNITY_UINT)threshold) && (compare & UNITY_GREATER_THAN)) { faile
 2309              		.loc 1 753 102 view .LVU577
 2310 0066 0123     		movs	r3, #1
 2311              	.LVL269:
 2312              	.L231:
 754:Core/test/unity.c ****     }
 2313              		.loc 1 754 9 is_stmt 1 view .LVU578
 754:Core/test/unity.c ****     }
ARM GAS  C:\Users\ASUS\AppData\Local\Temp\ccstHO0r.s 			page 67


 2314              		.loc 1 754 12 is_stmt 0 view .LVU579
 2315 0068 A542     		cmp	r5, r4
 2316 006a EAD2     		bcs	.L229
 754:Core/test/unity.c ****     }
 2317              		.loc 1 754 58 discriminator 1 view .LVU580
 2318 006c 16F0020F 		tst	r6, #2
 2319 0070 E7D0     		beq	.L229
 2320              	.L230:
 2321              	.LVL270:
 759:Core/test/unity.c ****         UnityPrint(UnityStrExpected);
 2322              		.loc 1 759 9 is_stmt 1 view .LVU581
 2323 0072 0698     		ldr	r0, [sp, #24]
 2324              	.LVL271:
 759:Core/test/unity.c ****         UnityPrint(UnityStrExpected);
 2325              		.loc 1 759 9 is_stmt 0 view .LVU582
 2326 0074 FFF7FEFF 		bl	UnityTestResultsFailBegin
 2327              	.LVL272:
 760:Core/test/unity.c ****         UnityPrintNumberByStyle(actual, style);
 2328              		.loc 1 760 9 is_stmt 1 view .LVU583
 2329 0078 1848     		ldr	r0, .L245+8
 2330 007a FFF7FEFF 		bl	UnityPrint
 2331              	.LVL273:
 761:Core/test/unity.c ****         if (compare & UNITY_GREATER_THAN) { UnityPrint(UnityStrGt);       }
 2332              		.loc 1 761 9 view .LVU584
 2333 007e 4146     		mov	r1, r8
 2334 0080 2846     		mov	r0, r5
 2335 0082 FFF7FEFF 		bl	UnityPrintNumberByStyle
 2336              	.LVL274:
 762:Core/test/unity.c ****         if (compare & UNITY_SMALLER_THAN) { UnityPrint(UnityStrLt);       }
 2337              		.loc 1 762 9 view .LVU585
 762:Core/test/unity.c ****         if (compare & UNITY_SMALLER_THAN) { UnityPrint(UnityStrLt);       }
 2338              		.loc 1 762 12 is_stmt 0 view .LVU586
 2339 0086 16F0020F 		tst	r6, #2
 2340 008a 13D1     		bne	.L241
 2341              	.L232:
 763:Core/test/unity.c ****         if (compare & UNITY_EQUAL_TO)     { UnityPrint(UnityStrOrEqual);  }
 2342              		.loc 1 763 9 is_stmt 1 view .LVU587
 763:Core/test/unity.c ****         if (compare & UNITY_EQUAL_TO)     { UnityPrint(UnityStrOrEqual);  }
 2343              		.loc 1 763 12 is_stmt 0 view .LVU588
 2344 008c 16F0040F 		tst	r6, #4
 2345 0090 14D1     		bne	.L242
 2346              	.L233:
 764:Core/test/unity.c ****         if (compare == UNITY_NOT_EQUAL)   { UnityPrint(UnityStrNotEqual); }
 2347              		.loc 1 764 9 is_stmt 1 view .LVU589
 764:Core/test/unity.c ****         if (compare == UNITY_NOT_EQUAL)   { UnityPrint(UnityStrNotEqual); }
 2348              		.loc 1 764 12 is_stmt 0 view .LVU590
 2349 0092 16F0010F 		tst	r6, #1
 2350 0096 15D1     		bne	.L243
 2351              	.L234:
 765:Core/test/unity.c ****         UnityPrintNumberByStyle(threshold, style);
 2352              		.loc 1 765 9 is_stmt 1 view .LVU591
 765:Core/test/unity.c ****         UnityPrintNumberByStyle(threshold, style);
 2353              		.loc 1 765 12 is_stmt 0 view .LVU592
 2354 0098 C6B1     		cbz	r6, .L244
 2355              	.L235:
 766:Core/test/unity.c ****         UnityAddMsgIfSpecified(msg);
 2356              		.loc 1 766 9 is_stmt 1 view .LVU593
ARM GAS  C:\Users\ASUS\AppData\Local\Temp\ccstHO0r.s 			page 68


 2357 009a 4146     		mov	r1, r8
 2358 009c 2046     		mov	r0, r4
 2359 009e FFF7FEFF 		bl	UnityPrintNumberByStyle
 2360              	.LVL275:
 767:Core/test/unity.c ****         UNITY_FAIL_AND_BAIL;
 2361              		.loc 1 767 9 view .LVU594
 2362 00a2 3846     		mov	r0, r7
 2363 00a4 FFF7FEFF 		bl	UnityAddMsgIfSpecified
 2364              	.LVL276:
 768:Core/test/unity.c ****     }
 2365              		.loc 1 768 9 view .LVU595
 768:Core/test/unity.c ****     }
 2366              		.loc 1 768 9 view .LVU596
 2367 00a8 0A48     		ldr	r0, .L245
 2368 00aa 0121     		movs	r1, #1
 2369 00ac 0162     		str	r1, [r0, #32]
 768:Core/test/unity.c ****     }
 2370              		.loc 1 768 9 view .LVU597
 768:Core/test/unity.c ****     }
 2371              		.loc 1 768 9 view .LVU598
 2372 00ae 2830     		adds	r0, r0, #40
 2373 00b0 FFF7FEFF 		bl	longjmp
 2374              	.LVL277:
 2375              	.L241:
 762:Core/test/unity.c ****         if (compare & UNITY_SMALLER_THAN) { UnityPrint(UnityStrLt);       }
 2376              		.loc 1 762 45 discriminator 1 view .LVU599
 2377 00b4 0A48     		ldr	r0, .L245+12
 2378 00b6 FFF7FEFF 		bl	UnityPrint
 2379              	.LVL278:
 2380 00ba E7E7     		b	.L232
 2381              	.L242:
 763:Core/test/unity.c ****         if (compare & UNITY_EQUAL_TO)     { UnityPrint(UnityStrOrEqual);  }
 2382              		.loc 1 763 45 discriminator 1 view .LVU600
 2383 00bc 0948     		ldr	r0, .L245+16
 2384 00be FFF7FEFF 		bl	UnityPrint
 2385              	.LVL279:
 2386 00c2 E6E7     		b	.L233
 2387              	.L243:
 764:Core/test/unity.c ****         if (compare == UNITY_NOT_EQUAL)   { UnityPrint(UnityStrNotEqual); }
 2388              		.loc 1 764 45 discriminator 1 view .LVU601
 2389 00c4 0848     		ldr	r0, .L245+20
 2390 00c6 FFF7FEFF 		bl	UnityPrint
 2391              	.LVL280:
 2392 00ca E5E7     		b	.L234
 2393              	.L244:
 765:Core/test/unity.c ****         UnityPrintNumberByStyle(threshold, style);
 2394              		.loc 1 765 45 discriminator 1 view .LVU602
 2395 00cc 0748     		ldr	r0, .L245+24
 2396 00ce FFF7FEFF 		bl	UnityPrint
 2397              	.LVL281:
 2398 00d2 E2E7     		b	.L235
 2399              	.L246:
 2400              		.align	2
 2401              	.L245:
 2402 00d4 00000000 		.word	.LANCHOR0
 2403 00d8 28000000 		.word	.LANCHOR0+40
 2404 00dc 00000000 		.word	.LANCHOR7
ARM GAS  C:\Users\ASUS\AppData\Local\Temp\ccstHO0r.s 			page 69


 2405 00e0 00000000 		.word	.LANCHOR11
 2406 00e4 00000000 		.word	.LANCHOR12
 2407 00e8 00000000 		.word	.LANCHOR13
 2408 00ec 00000000 		.word	.LANCHOR14
 2409              		.cfi_endproc
 2410              	.LFE155:
 2412              		.section	.text.UnityAssertEqualIntArray,"ax",%progbits
 2413              		.align	1
 2414              		.global	UnityAssertEqualIntArray
 2415              		.syntax unified
 2416              		.thumb
 2417              		.thumb_func
 2418              		.fpu fpv4-sp-d16
 2420              	UnityAssertEqualIntArray:
 2421              	.LVL282:
 2422              	.LFB156:
 788:Core/test/unity.c ****     UNITY_UINT32 elements  = num_elements;
 2423              		.loc 1 788 1 view -0
 2424              		.cfi_startproc
 2425              		@ args = 12, pretend = 0, frame = 8
 2426              		@ frame_needed = 0, uses_anonymous_args = 0
 788:Core/test/unity.c ****     UNITY_UINT32 elements  = num_elements;
 2427              		.loc 1 788 1 is_stmt 0 view .LVU604
 2428 0000 2DE9F04F 		push	{r4, r5, r6, r7, r8, r9, r10, fp, lr}
 2429              	.LCFI27:
 2430              		.cfi_def_cfa_offset 36
 2431              		.cfi_offset 4, -36
 2432              		.cfi_offset 5, -32
 2433              		.cfi_offset 6, -28
 2434              		.cfi_offset 7, -24
 2435              		.cfi_offset 8, -20
 2436              		.cfi_offset 9, -16
 2437              		.cfi_offset 10, -12
 2438              		.cfi_offset 11, -8
 2439              		.cfi_offset 14, -4
 2440 0004 83B0     		sub	sp, sp, #12
 2441              	.LCFI28:
 2442              		.cfi_def_cfa_offset 48
 2443 0006 0092     		str	r2, [sp]
 2444 0008 0193     		str	r3, [sp, #4]
 2445 000a 9DF834B0 		ldrb	fp, [sp, #52]	@ zero_extendqisi2
 2446 000e 9DF838A0 		ldrb	r10, [sp, #56]	@ zero_extendqisi2
 789:Core/test/unity.c ****     unsigned int length    = style & 0xF;
 2447              		.loc 1 789 5 is_stmt 1 view .LVU605
 2448              	.LVL283:
 790:Core/test/unity.c ****     unsigned int increment = 0;
 2449              		.loc 1 790 5 view .LVU606
 791:Core/test/unity.c **** 
 2450              		.loc 1 791 5 view .LVU607
 793:Core/test/unity.c **** 
 2451              		.loc 1 793 5 view .LVU608
 793:Core/test/unity.c **** 
 2452              		.loc 1 793 5 view .LVU609
 2453 0012 474B     		ldr	r3, .L269
 2454              	.LVL284:
 793:Core/test/unity.c **** 
 2455              		.loc 1 793 5 is_stmt 0 view .LVU610
ARM GAS  C:\Users\ASUS\AppData\Local\Temp\ccstHO0r.s 			page 70


 2456 0014 1B6A     		ldr	r3, [r3, #32]
 2457 0016 8BB9     		cbnz	r3, .L248
 2458 0018 8146     		mov	r9, r0
 2459 001a 0C46     		mov	r4, r1
 2460 001c 0BF00F06 		and	r6, fp, #15
 2461              	.LVL285:
 793:Core/test/unity.c **** 
 2462              		.loc 1 793 5 discriminator 2 view .LVU611
 2463 0020 434B     		ldr	r3, .L269
 2464 0022 5B6A     		ldr	r3, [r3, #36]
 2465 0024 53B9     		cbnz	r3, .L248
 793:Core/test/unity.c **** 
 2466              		.loc 1 793 5 is_stmt 1 discriminator 4 view .LVU612
 795:Core/test/unity.c ****     {
 2467              		.loc 1 795 5 discriminator 4 view .LVU613
 795:Core/test/unity.c ****     {
 2468              		.loc 1 795 8 is_stmt 0 discriminator 4 view .LVU614
 2469 0026 009B     		ldr	r3, [sp]
 2470 0028 63B1     		cbz	r3, .L265
 800:Core/test/unity.c **** #endif
 2471              		.loc 1 800 9 is_stmt 1 view .LVU615
 800:Core/test/unity.c **** #endif
 2472              		.loc 1 800 9 view .LVU616
 804:Core/test/unity.c ****     {
 2473              		.loc 1 804 5 view .LVU617
 804:Core/test/unity.c ****     {
 2474              		.loc 1 804 8 is_stmt 0 view .LVU618
 2475 002a 8842     		cmp	r0, r1
 2476 002c 7DD0     		beq	.L247
 809:Core/test/unity.c ****     {
 2477              		.loc 1 809 5 is_stmt 1 view .LVU619
 809:Core/test/unity.c ****     {
 2478              		.loc 1 809 9 is_stmt 0 view .LVU620
 2479 002e 019B     		ldr	r3, [sp, #4]
 2480 0030 0C9A     		ldr	r2, [sp, #48]
 2481              	.LVL286:
 809:Core/test/unity.c ****     {
 2482              		.loc 1 809 9 view .LVU621
 2483 0032 FFF7FEFF 		bl	UnityIsOneArrayNull
 2484              	.LVL287:
 809:Core/test/unity.c ****     {
 2485              		.loc 1 809 8 view .LVU622
 2486 0036 A0B9     		cbnz	r0, .L266
 789:Core/test/unity.c ****     unsigned int length    = style & 0xF;
 2487              		.loc 1 789 18 view .LVU623
 2488 0038 009D     		ldr	r5, [sp]
 2489 003a 29E0     		b	.L252
 2490              	.LVL288:
 2491              	.L248:
 793:Core/test/unity.c **** 
 2492              		.loc 1 793 5 is_stmt 1 discriminator 3 view .LVU624
 2493 003c 0121     		movs	r1, #1
 2494              	.LVL289:
 793:Core/test/unity.c **** 
 2495              		.loc 1 793 5 is_stmt 0 discriminator 3 view .LVU625
 2496 003e 3D48     		ldr	r0, .L269+4
 2497              	.LVL290:
ARM GAS  C:\Users\ASUS\AppData\Local\Temp\ccstHO0r.s 			page 71


 793:Core/test/unity.c **** 
 2498              		.loc 1 793 5 discriminator 3 view .LVU626
 2499 0040 FFF7FEFF 		bl	longjmp
 2500              	.LVL291:
 2501              	.L265:
 800:Core/test/unity.c **** #endif
 2502              		.loc 1 800 9 is_stmt 1 view .LVU627
 800:Core/test/unity.c **** #endif
 2503              		.loc 1 800 9 view .LVU628
 2504 0044 0C98     		ldr	r0, [sp, #48]
 2505              	.LVL292:
 800:Core/test/unity.c **** #endif
 2506              		.loc 1 800 9 is_stmt 0 view .LVU629
 2507 0046 FFF7FEFF 		bl	UnityTestResultsFailBegin
 2508              	.LVL293:
 800:Core/test/unity.c **** #endif
 2509              		.loc 1 800 9 is_stmt 1 view .LVU630
 2510 004a 3B48     		ldr	r0, .L269+8
 2511 004c FFF7FEFF 		bl	UnityPrint
 2512              	.LVL294:
 800:Core/test/unity.c **** #endif
 2513              		.loc 1 800 9 view .LVU631
 2514 0050 0198     		ldr	r0, [sp, #4]
 2515 0052 FFF7FEFF 		bl	UnityAddMsgIfSpecified
 2516              	.LVL295:
 800:Core/test/unity.c **** #endif
 2517              		.loc 1 800 9 view .LVU632
 800:Core/test/unity.c **** #endif
 2518              		.loc 1 800 9 view .LVU633
 2519 0056 3648     		ldr	r0, .L269
 2520 0058 0121     		movs	r1, #1
 2521 005a 0162     		str	r1, [r0, #32]
 800:Core/test/unity.c **** #endif
 2522              		.loc 1 800 9 view .LVU634
 800:Core/test/unity.c **** #endif
 2523              		.loc 1 800 9 view .LVU635
 2524 005c 2830     		adds	r0, r0, #40
 2525 005e FFF7FEFF 		bl	longjmp
 2526              	.LVL296:
 2527              	.L266:
 811:Core/test/unity.c ****     }
 2528              		.loc 1 811 9 view .LVU636
 811:Core/test/unity.c ****     }
 2529              		.loc 1 811 9 view .LVU637
 2530 0062 3348     		ldr	r0, .L269
 2531 0064 0121     		movs	r1, #1
 2532 0066 0162     		str	r1, [r0, #32]
 811:Core/test/unity.c ****     }
 2533              		.loc 1 811 9 view .LVU638
 811:Core/test/unity.c ****     }
 2534              		.loc 1 811 9 view .LVU639
 2535 0068 2830     		adds	r0, r0, #40
 2536 006a FFF7FEFF 		bl	longjmp
 2537              	.LVL297:
 2538              	.L257:
 2539              	.LBB11:
 822:Core/test/unity.c ****                 actual_val = *(UNITY_PTR_ATTRIBUTE const UNITY_INT8*)actual;
ARM GAS  C:\Users\ASUS\AppData\Local\Temp\ccstHO0r.s 			page 72


 2540              		.loc 1 822 17 view .LVU640
 822:Core/test/unity.c ****                 actual_val = *(UNITY_PTR_ATTRIBUTE const UNITY_INT8*)actual;
 2541              		.loc 1 822 30 is_stmt 0 view .LVU641
 2542 006e 99F90080 		ldrsb	r8, [r9]
 2543              	.LVL298:
 823:Core/test/unity.c ****                 if (style & (UNITY_DISPLAY_RANGE_UINT | UNITY_DISPLAY_RANGE_HEX))
 2544              		.loc 1 823 17 is_stmt 1 view .LVU642
 823:Core/test/unity.c ****                 if (style & (UNITY_DISPLAY_RANGE_UINT | UNITY_DISPLAY_RANGE_HEX))
 2545              		.loc 1 823 30 is_stmt 0 view .LVU643
 2546 0072 94F90070 		ldrsb	r7, [r4]
 2547              	.LVL299:
 824:Core/test/unity.c ****                 {
 2548              		.loc 1 824 17 is_stmt 1 view .LVU644
 824:Core/test/unity.c ****                 {
 2549              		.loc 1 824 20 is_stmt 0 view .LVU645
 2550 0076 1BF0600F 		tst	fp, #96
 2551 007a 22D0     		beq	.L261
 826:Core/test/unity.c ****                     actual_val &= 0x000000FF;
 2552              		.loc 1 826 21 is_stmt 1 view .LVU646
 826:Core/test/unity.c ****                     actual_val &= 0x000000FF;
 2553              		.loc 1 826 32 is_stmt 0 view .LVU647
 2554 007c 5FFA88F8 		uxtb	r8, r8
 2555              	.LVL300:
 827:Core/test/unity.c ****                 }
 2556              		.loc 1 827 21 is_stmt 1 view .LVU648
 827:Core/test/unity.c ****                 }
 2557              		.loc 1 827 32 is_stmt 0 view .LVU649
 2558 0080 FFB2     		uxtb	r7, r7
 2559              	.LVL301:
 829:Core/test/unity.c ****                 break;
 2560              		.loc 1 829 28 view .LVU650
 2561 0082 3346     		mov	r3, r6
 2562              	.LVL302:
 2563              	.L253:
 867:Core/test/unity.c ****         {
 2564              		.loc 1 867 9 is_stmt 1 view .LVU651
 867:Core/test/unity.c ****         {
 2565              		.loc 1 867 12 is_stmt 0 view .LVU652
 2566 0084 B845     		cmp	r8, r7
 2567 0086 20D1     		bne	.L267
 884:Core/test/unity.c ****         }
 2568              		.loc 1 884 13 is_stmt 1 view .LVU653
 887:Core/test/unity.c ****         {
 2569              		.loc 1 887 9 view .LVU654
 887:Core/test/unity.c ****         {
 2570              		.loc 1 887 12 is_stmt 0 view .LVU655
 2571 0088 BAF1010F 		cmp	r10, #1
 2572 008c 4BD0     		beq	.L268
 2573              	.L256:
 891:Core/test/unity.c ****     }
 2574              		.loc 1 891 9 is_stmt 1 view .LVU656
 891:Core/test/unity.c ****     }
 2575              		.loc 1 891 16 is_stmt 0 view .LVU657
 2576 008e 1C44     		add	r4, r4, r3
 2577              	.LVL303:
 2578              	.L252:
 891:Core/test/unity.c ****     }
ARM GAS  C:\Users\ASUS\AppData\Local\Temp\ccstHO0r.s 			page 73


 2579              		.loc 1 891 16 view .LVU658
 2580              	.LBE11:
 814:Core/test/unity.c ****     {
 2581              		.loc 1 814 11 is_stmt 1 view .LVU659
 2582 0090 002D     		cmp	r5, #0
 2583 0092 4AD0     		beq	.L247
 814:Core/test/unity.c ****     {
 2584              		.loc 1 814 39 is_stmt 0 discriminator 1 view .LVU660
 2585 0094 013D     		subs	r5, r5, #1
 2586              	.LVL304:
 2587              	.LBB13:
 816:Core/test/unity.c ****         UNITY_INT actual_val;
 2588              		.loc 1 816 9 is_stmt 1 discriminator 1 view .LVU661
 817:Core/test/unity.c **** 
 2589              		.loc 1 817 9 discriminator 1 view .LVU662
 819:Core/test/unity.c ****         {
 2590              		.loc 1 819 9 discriminator 1 view .LVU663
 2591 0096 012E     		cmp	r6, #1
 2592 0098 E9D0     		beq	.L257
 819:Core/test/unity.c ****         {
 2593              		.loc 1 819 9 is_stmt 0 view .LVU664
 2594 009a 022E     		cmp	r6, #2
 2595 009c 05D0     		beq	.L258
 853:Core/test/unity.c ****                 actual_val = *(UNITY_PTR_ATTRIBUTE const UNITY_INT32*)actual;
 2596              		.loc 1 853 17 is_stmt 1 view .LVU665
 853:Core/test/unity.c ****                 actual_val = *(UNITY_PTR_ATTRIBUTE const UNITY_INT32*)actual;
 2597              		.loc 1 853 28 is_stmt 0 view .LVU666
 2598 009e D9F80080 		ldr	r8, [r9]
 2599              	.LVL305:
 854:Core/test/unity.c **** #ifdef UNITY_SUPPORT_64
 2600              		.loc 1 854 17 is_stmt 1 view .LVU667
 854:Core/test/unity.c **** #ifdef UNITY_SUPPORT_64
 2601              		.loc 1 854 28 is_stmt 0 view .LVU668
 2602 00a2 2768     		ldr	r7, [r4]
 2603              	.LVL306:
 862:Core/test/unity.c ****                 length = 4;
 2604              		.loc 1 862 17 is_stmt 1 view .LVU669
 863:Core/test/unity.c ****                 break;
 2605              		.loc 1 863 17 view .LVU670
 864:Core/test/unity.c ****         }
 2606              		.loc 1 864 17 view .LVU671
 862:Core/test/unity.c ****                 length = 4;
 2607              		.loc 1 862 28 is_stmt 0 view .LVU672
 2608 00a4 0423     		movs	r3, #4
 863:Core/test/unity.c ****                 break;
 2609              		.loc 1 863 24 view .LVU673
 2610 00a6 1E46     		mov	r6, r3
 864:Core/test/unity.c ****         }
 2611              		.loc 1 864 17 view .LVU674
 2612 00a8 ECE7     		b	.L253
 2613              	.LVL307:
 2614              	.L258:
 833:Core/test/unity.c ****                 actual_val = *(UNITY_PTR_ATTRIBUTE const UNITY_INT16*)actual;
 2615              		.loc 1 833 17 is_stmt 1 view .LVU675
 833:Core/test/unity.c ****                 actual_val = *(UNITY_PTR_ATTRIBUTE const UNITY_INT16*)actual;
 2616              		.loc 1 833 30 is_stmt 0 view .LVU676
 2617 00aa B9F90080 		ldrsh	r8, [r9]
ARM GAS  C:\Users\ASUS\AppData\Local\Temp\ccstHO0r.s 			page 74


 2618              	.LVL308:
 834:Core/test/unity.c ****                 if (style & (UNITY_DISPLAY_RANGE_UINT | UNITY_DISPLAY_RANGE_HEX))
 2619              		.loc 1 834 17 is_stmt 1 view .LVU677
 834:Core/test/unity.c ****                 if (style & (UNITY_DISPLAY_RANGE_UINT | UNITY_DISPLAY_RANGE_HEX))
 2620              		.loc 1 834 30 is_stmt 0 view .LVU678
 2621 00ae B4F90070 		ldrsh	r7, [r4]
 2622              	.LVL309:
 835:Core/test/unity.c ****                 {
 2623              		.loc 1 835 17 is_stmt 1 view .LVU679
 835:Core/test/unity.c ****                 {
 2624              		.loc 1 835 20 is_stmt 0 view .LVU680
 2625 00b2 1BF0600F 		tst	fp, #96
 2626 00b6 06D0     		beq	.L262
 837:Core/test/unity.c ****                     actual_val &= 0x0000FFFF;
 2627              		.loc 1 837 21 is_stmt 1 view .LVU681
 837:Core/test/unity.c ****                     actual_val &= 0x0000FFFF;
 2628              		.loc 1 837 32 is_stmt 0 view .LVU682
 2629 00b8 1FFA88F8 		uxth	r8, r8
 2630              	.LVL310:
 838:Core/test/unity.c ****                 }
 2631              		.loc 1 838 21 is_stmt 1 view .LVU683
 838:Core/test/unity.c ****                 }
 2632              		.loc 1 838 32 is_stmt 0 view .LVU684
 2633 00bc BFB2     		uxth	r7, r7
 2634              	.LVL311:
 840:Core/test/unity.c ****                 break;
 2635              		.loc 1 840 28 view .LVU685
 2636 00be 3346     		mov	r3, r6
 2637 00c0 E0E7     		b	.L253
 2638              	.L261:
 829:Core/test/unity.c ****                 break;
 2639              		.loc 1 829 28 view .LVU686
 2640 00c2 3346     		mov	r3, r6
 2641 00c4 DEE7     		b	.L253
 2642              	.L262:
 840:Core/test/unity.c ****                 break;
 2643              		.loc 1 840 28 view .LVU687
 2644 00c6 3346     		mov	r3, r6
 2645 00c8 DCE7     		b	.L253
 2646              	.LVL312:
 2647              	.L267:
 869:Core/test/unity.c ****             {   /* For UINT, remove sign extension (padding 1's) from signed type casts above */
 2648              		.loc 1 869 13 is_stmt 1 view .LVU688
 869:Core/test/unity.c ****             {   /* For UINT, remove sign extension (padding 1's) from signed type casts above */
 2649              		.loc 1 869 16 is_stmt 0 view .LVU689
 2650 00ca 1BF0200F 		tst	fp, #32
 2651 00ce 08D0     		beq	.L255
 869:Core/test/unity.c ****             {   /* For UINT, remove sign extension (padding 1's) from signed type casts above */
 2652              		.loc 1 869 52 discriminator 1 view .LVU690
 2653 00d0 032E     		cmp	r6, #3
 2654 00d2 06D8     		bhi	.L255
 2655              	.LBB12:
 871:Core/test/unity.c ****                 mask = (mask << 8 * length) - 1;
 2656              		.loc 1 871 17 is_stmt 1 view .LVU691
 2657              	.LVL313:
 872:Core/test/unity.c ****                 expect_val &= mask;
 2658              		.loc 1 872 17 view .LVU692
ARM GAS  C:\Users\ASUS\AppData\Local\Temp\ccstHO0r.s 			page 75


 872:Core/test/unity.c ****                 expect_val &= mask;
 2659              		.loc 1 872 35 is_stmt 0 view .LVU693
 2660 00d4 F600     		lsls	r6, r6, #3
 2661              	.LVL314:
 872:Core/test/unity.c ****                 expect_val &= mask;
 2662              		.loc 1 872 30 view .LVU694
 2663 00d6 0123     		movs	r3, #1
 2664              	.LVL315:
 872:Core/test/unity.c ****                 expect_val &= mask;
 2665              		.loc 1 872 30 view .LVU695
 2666 00d8 B340     		lsls	r3, r3, r6
 872:Core/test/unity.c ****                 expect_val &= mask;
 2667              		.loc 1 872 22 view .LVU696
 2668 00da 013B     		subs	r3, r3, #1
 2669              	.LVL316:
 873:Core/test/unity.c ****                 actual_val &= mask;
 2670              		.loc 1 873 17 is_stmt 1 view .LVU697
 873:Core/test/unity.c ****                 actual_val &= mask;
 2671              		.loc 1 873 28 is_stmt 0 view .LVU698
 2672 00dc 08EA0308 		and	r8, r8, r3
 2673              	.LVL317:
 874:Core/test/unity.c ****             }
 2674              		.loc 1 874 17 is_stmt 1 view .LVU699
 874:Core/test/unity.c ****             }
 2675              		.loc 1 874 28 is_stmt 0 view .LVU700
 2676 00e0 1F40     		ands	r7, r7, r3
 2677              	.LVL318:
 2678              	.L255:
 874:Core/test/unity.c ****             }
 2679              		.loc 1 874 28 view .LVU701
 2680              	.LBE12:
 876:Core/test/unity.c ****             UnityPrint(UnityStrElement);
 2681              		.loc 1 876 13 is_stmt 1 view .LVU702
 2682 00e2 0C98     		ldr	r0, [sp, #48]
 2683 00e4 FFF7FEFF 		bl	UnityTestResultsFailBegin
 2684              	.LVL319:
 877:Core/test/unity.c ****             UnityPrintNumberUnsigned(num_elements - elements - 1);
 2685              		.loc 1 877 13 view .LVU703
 2686 00e8 1448     		ldr	r0, .L269+12
 2687 00ea FFF7FEFF 		bl	UnityPrint
 2688              	.LVL320:
 878:Core/test/unity.c ****             UnityPrint(UnityStrExpected);
 2689              		.loc 1 878 13 view .LVU704
 878:Core/test/unity.c ****             UnityPrint(UnityStrExpected);
 2690              		.loc 1 878 51 is_stmt 0 view .LVU705
 2691 00ee 009B     		ldr	r3, [sp]
 2692 00f0 581B     		subs	r0, r3, r5
 878:Core/test/unity.c ****             UnityPrint(UnityStrExpected);
 2693              		.loc 1 878 13 view .LVU706
 2694 00f2 0138     		subs	r0, r0, #1
 2695 00f4 FFF7FEFF 		bl	UnityPrintNumberUnsigned
 2696              	.LVL321:
 879:Core/test/unity.c ****             UnityPrintNumberByStyle(expect_val, style);
 2697              		.loc 1 879 13 is_stmt 1 view .LVU707
 2698 00f8 1148     		ldr	r0, .L269+16
 2699 00fa FFF7FEFF 		bl	UnityPrint
 2700              	.LVL322:
ARM GAS  C:\Users\ASUS\AppData\Local\Temp\ccstHO0r.s 			page 76


 880:Core/test/unity.c ****             UnityPrint(UnityStrWas);
 2701              		.loc 1 880 13 view .LVU708
 2702 00fe 5946     		mov	r1, fp
 2703 0100 4046     		mov	r0, r8
 2704 0102 FFF7FEFF 		bl	UnityPrintNumberByStyle
 2705              	.LVL323:
 881:Core/test/unity.c ****             UnityPrintNumberByStyle(actual_val, style);
 2706              		.loc 1 881 13 view .LVU709
 2707 0106 0F48     		ldr	r0, .L269+20
 2708 0108 FFF7FEFF 		bl	UnityPrint
 2709              	.LVL324:
 882:Core/test/unity.c ****             UnityAddMsgIfSpecified(msg);
 2710              		.loc 1 882 13 view .LVU710
 2711 010c 5946     		mov	r1, fp
 2712 010e 3846     		mov	r0, r7
 2713 0110 FFF7FEFF 		bl	UnityPrintNumberByStyle
 2714              	.LVL325:
 883:Core/test/unity.c ****             UNITY_FAIL_AND_BAIL;
 2715              		.loc 1 883 13 view .LVU711
 2716 0114 0198     		ldr	r0, [sp, #4]
 2717 0116 FFF7FEFF 		bl	UnityAddMsgIfSpecified
 2718              	.LVL326:
 884:Core/test/unity.c ****         }
 2719              		.loc 1 884 13 view .LVU712
 884:Core/test/unity.c ****         }
 2720              		.loc 1 884 13 view .LVU713
 2721 011a 0548     		ldr	r0, .L269
 2722 011c 0121     		movs	r1, #1
 2723 011e 0162     		str	r1, [r0, #32]
 884:Core/test/unity.c ****         }
 2724              		.loc 1 884 13 view .LVU714
 884:Core/test/unity.c ****         }
 2725              		.loc 1 884 13 view .LVU715
 2726 0120 2830     		adds	r0, r0, #40
 2727 0122 FFF7FEFF 		bl	longjmp
 2728              	.LVL327:
 2729              	.L268:
 889:Core/test/unity.c ****         }
 2730              		.loc 1 889 13 view .LVU716
 889:Core/test/unity.c ****         }
 2731              		.loc 1 889 22 is_stmt 0 view .LVU717
 2732 0126 9944     		add	r9, r9, r3
 2733              	.LVL328:
 889:Core/test/unity.c ****         }
 2734              		.loc 1 889 22 view .LVU718
 2735 0128 B1E7     		b	.L256
 2736              	.LVL329:
 2737              	.L247:
 889:Core/test/unity.c ****         }
 2738              		.loc 1 889 22 view .LVU719
 2739              	.LBE13:
 893:Core/test/unity.c **** 
 2740              		.loc 1 893 1 view .LVU720
 2741 012a 03B0     		add	sp, sp, #12
 2742              	.LCFI29:
 2743              		.cfi_def_cfa_offset 36
 2744              	.LVL330:
ARM GAS  C:\Users\ASUS\AppData\Local\Temp\ccstHO0r.s 			page 77


 893:Core/test/unity.c **** 
 2745              		.loc 1 893 1 view .LVU721
 2746              		@ sp needed
 2747 012c BDE8F08F 		pop	{r4, r5, r6, r7, r8, r9, r10, fp, pc}
 2748              	.LVL331:
 2749              	.L270:
 893:Core/test/unity.c **** 
 2750              		.loc 1 893 1 view .LVU722
 2751              		.align	2
 2752              	.L269:
 2753 0130 00000000 		.word	.LANCHOR0
 2754 0134 28000000 		.word	.LANCHOR0+40
 2755 0138 00000000 		.word	.LANCHOR15
 2756 013c 00000000 		.word	.LANCHOR16
 2757 0140 00000000 		.word	.LANCHOR7
 2758 0144 00000000 		.word	.LANCHOR9
 2759              		.cfi_endproc
 2760              	.LFE156:
 2762              		.section	.text.UnityAssertWithinFloatArray,"ax",%progbits
 2763              		.align	1
 2764              		.global	UnityAssertWithinFloatArray
 2765              		.syntax unified
 2766              		.thumb
 2767              		.thumb_func
 2768              		.fpu fpv4-sp-d16
 2770              	UnityAssertWithinFloatArray:
 2771              	.LVL332:
 2772              	.LFB158:
 931:Core/test/unity.c **** 
 932:Core/test/unity.c **** /*-----------------------------------------------*/
 933:Core/test/unity.c **** void UnityAssertWithinFloatArray(const UNITY_FLOAT delta,
 934:Core/test/unity.c ****                                  UNITY_PTR_ATTRIBUTE const UNITY_FLOAT* expected,
 935:Core/test/unity.c ****                                  UNITY_PTR_ATTRIBUTE const UNITY_FLOAT* actual,
 936:Core/test/unity.c ****                                  const UNITY_UINT32 num_elements,
 937:Core/test/unity.c ****                                  const char* msg,
 938:Core/test/unity.c ****                                  const UNITY_LINE_TYPE lineNumber,
 939:Core/test/unity.c ****                                  const UNITY_FLAGS_T flags)
 940:Core/test/unity.c **** {
 2773              		.loc 1 940 1 is_stmt 1 view -0
 2774              		.cfi_startproc
 2775              		@ args = 8, pretend = 0, frame = 0
 2776              		@ frame_needed = 0, uses_anonymous_args = 0
 2777              		.loc 1 940 1 is_stmt 0 view .LVU724
 2778 0000 2DE9F843 		push	{r3, r4, r5, r6, r7, r8, r9, lr}
 2779              	.LCFI30:
 2780              		.cfi_def_cfa_offset 32
 2781              		.cfi_offset 3, -32
 2782              		.cfi_offset 4, -28
 2783              		.cfi_offset 5, -24
 2784              		.cfi_offset 6, -20
 2785              		.cfi_offset 7, -16
 2786              		.cfi_offset 8, -12
 2787              		.cfi_offset 9, -8
 2788              		.cfi_offset 14, -4
 2789 0004 2DED028B 		vpush.64	{d8}
 2790              	.LCFI31:
 2791              		.cfi_def_cfa_offset 40
ARM GAS  C:\Users\ASUS\AppData\Local\Temp\ccstHO0r.s 			page 78


 2792              		.cfi_offset 80, -40
 2793              		.cfi_offset 81, -36
 2794 0008 9846     		mov	r8, r3
 2795 000a 9DF82C70 		ldrb	r7, [sp, #44]	@ zero_extendqisi2
 941:Core/test/unity.c ****     UNITY_UINT32 elements = num_elements;
 2796              		.loc 1 941 5 is_stmt 1 view .LVU725
 2797              	.LVL333:
 942:Core/test/unity.c ****     UNITY_PTR_ATTRIBUTE const UNITY_FLOAT* ptr_expected = expected;
 2798              		.loc 1 942 25 view .LVU726
 943:Core/test/unity.c ****     UNITY_PTR_ATTRIBUTE const UNITY_FLOAT* ptr_actual = actual;
 2799              		.loc 1 943 25 view .LVU727
 944:Core/test/unity.c ****     UNITY_FLOAT in_delta = delta;
 2800              		.loc 1 944 5 view .LVU728
 945:Core/test/unity.c ****     UNITY_FLOAT current_element_delta = delta;
 2801              		.loc 1 945 5 view .LVU729
 946:Core/test/unity.c **** 
 947:Core/test/unity.c ****     RETURN_IF_FAIL_OR_IGNORE;
 2802              		.loc 1 947 5 view .LVU730
 2803              		.loc 1 947 5 view .LVU731
 2804 000e 4B4B     		ldr	r3, .L297
 2805              	.LVL334:
 2806              		.loc 1 947 5 is_stmt 0 view .LVU732
 2807 0010 1B6A     		ldr	r3, [r3, #32]
 2808 0012 23BB     		cbnz	r3, .L272
 2809 0014 B0EE408A 		vmov.f32	s16, s0
 2810 0018 0546     		mov	r5, r0
 2811 001a 0C46     		mov	r4, r1
 2812 001c 9146     		mov	r9, r2
 2813              		.loc 1 947 5 discriminator 2 view .LVU733
 2814 001e 474B     		ldr	r3, .L297
 2815 0020 5B6A     		ldr	r3, [r3, #36]
 2816 0022 E3B9     		cbnz	r3, .L272
 2817              		.loc 1 947 5 is_stmt 1 discriminator 4 view .LVU734
 948:Core/test/unity.c **** 
 949:Core/test/unity.c ****     if (elements == 0)
 2818              		.loc 1 949 5 discriminator 4 view .LVU735
 2819              		.loc 1 949 8 is_stmt 0 discriminator 4 view .LVU736
 2820 0024 FAB1     		cbz	r2, .L291
 950:Core/test/unity.c ****     {
 951:Core/test/unity.c **** #ifdef UNITY_COMPARE_PTRS_ON_ZERO_ARRAY
 952:Core/test/unity.c ****         UNITY_TEST_ASSERT_EQUAL_PTR(expected, actual, lineNumber, msg);
 953:Core/test/unity.c **** #else
 954:Core/test/unity.c ****         UnityPrintPointlessAndBail();
 2821              		.loc 1 954 9 is_stmt 1 view .LVU737
 2822              		.loc 1 954 9 view .LVU738
 955:Core/test/unity.c **** #endif
 956:Core/test/unity.c ****     }
 957:Core/test/unity.c **** 
 958:Core/test/unity.c ****     if (UNITY_IS_INF(in_delta))
 2823              		.loc 1 958 5 view .LVU739
 2824              		.loc 1 958 9 is_stmt 0 view .LVU740
 2825 0026 F0EEC07A 		vabs.f32	s15, s0
 2826              		.loc 1 958 8 view .LVU741
 2827 002a 9FED457A 		vldr.32	s14, .L297+4
 2828 002e F4EE477A 		vcmp.f32	s15, s14
 2829 0032 F1EE10FA 		vmrs	APSR_nzcv, FPSCR
 2830 0036 7CDC     		bgt	.L271
ARM GAS  C:\Users\ASUS\AppData\Local\Temp\ccstHO0r.s 			page 79


 959:Core/test/unity.c ****     {
 960:Core/test/unity.c ****         return; /* Arrays will be force equal with infinite delta */
 961:Core/test/unity.c ****     }
 962:Core/test/unity.c **** 
 963:Core/test/unity.c ****     if (UNITY_IS_NAN(in_delta))
 2831              		.loc 1 963 5 is_stmt 1 view .LVU742
 2832              		.loc 1 963 8 is_stmt 0 view .LVU743
 2833 0038 B4EE400A 		vcmp.f32	s0, s0
 2834 003c F1EE10FA 		vmrs	APSR_nzcv, FPSCR
 2835 0040 20D6     		bvs	.L292
 964:Core/test/unity.c ****     {
 965:Core/test/unity.c ****         /* Delta must be correct number */
 966:Core/test/unity.c ****         UnityPrintPointlessAndBail();
 2836              		.loc 1 966 9 is_stmt 1 view .LVU744
 2837              		.loc 1 966 9 view .LVU745
 967:Core/test/unity.c ****     }
 968:Core/test/unity.c **** 
 969:Core/test/unity.c ****     if (expected == actual)
 2838              		.loc 1 969 5 view .LVU746
 2839              		.loc 1 969 8 is_stmt 0 view .LVU747
 2840 0042 8842     		cmp	r0, r1
 2841 0044 75D0     		beq	.L271
 970:Core/test/unity.c ****     {
 971:Core/test/unity.c ****         return; /* Both are NULL or same pointer */
 972:Core/test/unity.c ****     }
 973:Core/test/unity.c **** 
 974:Core/test/unity.c ****     if (UnityIsOneArrayNull((UNITY_INTERNAL_PTR)expected, (UNITY_INTERNAL_PTR)actual, lineNumber, m
 2842              		.loc 1 974 5 is_stmt 1 view .LVU748
 2843              		.loc 1 974 9 is_stmt 0 view .LVU749
 2844 0046 4346     		mov	r3, r8
 2845 0048 0A9A     		ldr	r2, [sp, #40]
 2846              	.LVL335:
 2847              		.loc 1 974 9 view .LVU750
 2848 004a FFF7FEFF 		bl	UnityIsOneArrayNull
 2849              	.LVL336:
 2850              		.loc 1 974 8 view .LVU751
 2851 004e 40BB     		cbnz	r0, .L293
 975:Core/test/unity.c ****     {
 976:Core/test/unity.c ****         UNITY_FAIL_AND_BAIL;
 2852              		.loc 1 976 9 is_stmt 1 view .LVU752
 977:Core/test/unity.c ****     }
 978:Core/test/unity.c **** 
 979:Core/test/unity.c ****     /* fix delta sign if need */
 980:Core/test/unity.c ****     if (in_delta < 0)
 2853              		.loc 1 980 5 view .LVU753
 2854              		.loc 1 980 8 is_stmt 0 view .LVU754
 2855 0050 B5EEC08A 		vcmpe.f32	s16, #0
 2856 0054 F1EE10FA 		vmrs	APSR_nzcv, FPSCR
 2857 0058 29D4     		bmi	.L294
 2858              	.LVL337:
 2859              	.L279:
 940:Core/test/unity.c ****     UNITY_UINT32 elements = num_elements;
 2860              		.loc 1 940 1 view .LVU755
 2861 005a 4946     		mov	r1, r9
 2862 005c 35E0     		b	.L285
 2863              	.LVL338:
 2864              	.L272:
ARM GAS  C:\Users\ASUS\AppData\Local\Temp\ccstHO0r.s 			page 80


 947:Core/test/unity.c **** 
 2865              		.loc 1 947 5 is_stmt 1 discriminator 3 view .LVU756
 2866 005e 0121     		movs	r1, #1
 2867              	.LVL339:
 947:Core/test/unity.c **** 
 2868              		.loc 1 947 5 is_stmt 0 discriminator 3 view .LVU757
 2869 0060 3848     		ldr	r0, .L297+8
 2870              	.LVL340:
 947:Core/test/unity.c **** 
 2871              		.loc 1 947 5 discriminator 3 view .LVU758
 2872 0062 FFF7FEFF 		bl	longjmp
 2873              	.LVL341:
 2874              	.L291:
 954:Core/test/unity.c **** #endif
 2875              		.loc 1 954 9 is_stmt 1 view .LVU759
 954:Core/test/unity.c **** #endif
 2876              		.loc 1 954 9 view .LVU760
 2877 0066 0A98     		ldr	r0, [sp, #40]
 2878              	.LVL342:
 954:Core/test/unity.c **** #endif
 2879              		.loc 1 954 9 is_stmt 0 view .LVU761
 2880 0068 FFF7FEFF 		bl	UnityTestResultsFailBegin
 2881              	.LVL343:
 954:Core/test/unity.c **** #endif
 2882              		.loc 1 954 9 is_stmt 1 view .LVU762
 2883 006c 3648     		ldr	r0, .L297+12
 2884 006e FFF7FEFF 		bl	UnityPrint
 2885              	.LVL344:
 954:Core/test/unity.c **** #endif
 2886              		.loc 1 954 9 view .LVU763
 2887 0072 4046     		mov	r0, r8
 2888 0074 FFF7FEFF 		bl	UnityAddMsgIfSpecified
 2889              	.LVL345:
 954:Core/test/unity.c **** #endif
 2890              		.loc 1 954 9 view .LVU764
 954:Core/test/unity.c **** #endif
 2891              		.loc 1 954 9 view .LVU765
 2892 0078 3048     		ldr	r0, .L297
 2893 007a 0121     		movs	r1, #1
 2894 007c 0162     		str	r1, [r0, #32]
 954:Core/test/unity.c **** #endif
 2895              		.loc 1 954 9 view .LVU766
 954:Core/test/unity.c **** #endif
 2896              		.loc 1 954 9 view .LVU767
 2897 007e 2830     		adds	r0, r0, #40
 2898 0080 FFF7FEFF 		bl	longjmp
 2899              	.LVL346:
 2900              	.L292:
 966:Core/test/unity.c ****     }
 2901              		.loc 1 966 9 view .LVU768
 966:Core/test/unity.c ****     }
 2902              		.loc 1 966 9 view .LVU769
 2903 0084 0A98     		ldr	r0, [sp, #40]
 2904              	.LVL347:
 966:Core/test/unity.c ****     }
 2905              		.loc 1 966 9 is_stmt 0 view .LVU770
 2906 0086 FFF7FEFF 		bl	UnityTestResultsFailBegin
ARM GAS  C:\Users\ASUS\AppData\Local\Temp\ccstHO0r.s 			page 81


 2907              	.LVL348:
 966:Core/test/unity.c ****     }
 2908              		.loc 1 966 9 is_stmt 1 view .LVU771
 2909 008a 2F48     		ldr	r0, .L297+12
 2910 008c FFF7FEFF 		bl	UnityPrint
 2911              	.LVL349:
 966:Core/test/unity.c ****     }
 2912              		.loc 1 966 9 view .LVU772
 2913 0090 4046     		mov	r0, r8
 2914 0092 FFF7FEFF 		bl	UnityAddMsgIfSpecified
 2915              	.LVL350:
 966:Core/test/unity.c ****     }
 2916              		.loc 1 966 9 view .LVU773
 966:Core/test/unity.c ****     }
 2917              		.loc 1 966 9 view .LVU774
 2918 0096 2948     		ldr	r0, .L297
 2919 0098 0121     		movs	r1, #1
 2920 009a 0162     		str	r1, [r0, #32]
 966:Core/test/unity.c ****     }
 2921              		.loc 1 966 9 view .LVU775
 966:Core/test/unity.c ****     }
 2922              		.loc 1 966 9 view .LVU776
 2923 009c 2830     		adds	r0, r0, #40
 2924 009e FFF7FEFF 		bl	longjmp
 2925              	.LVL351:
 2926              	.L293:
 976:Core/test/unity.c ****     }
 2927              		.loc 1 976 9 view .LVU777
 976:Core/test/unity.c ****     }
 2928              		.loc 1 976 9 view .LVU778
 2929 00a2 2648     		ldr	r0, .L297
 2930 00a4 0121     		movs	r1, #1
 2931 00a6 0162     		str	r1, [r0, #32]
 976:Core/test/unity.c ****     }
 2932              		.loc 1 976 9 view .LVU779
 976:Core/test/unity.c ****     }
 2933              		.loc 1 976 9 view .LVU780
 2934 00a8 2830     		adds	r0, r0, #40
 2935 00aa FFF7FEFF 		bl	longjmp
 2936              	.LVL352:
 2937              	.L294:
 981:Core/test/unity.c ****     {
 982:Core/test/unity.c ****         in_delta = -in_delta;
 2938              		.loc 1 982 9 view .LVU781
 2939              		.loc 1 982 18 is_stmt 0 view .LVU782
 2940 00ae B1EE488A 		vneg.f32	s16, s16
 2941              	.LVL353:
 2942              		.loc 1 982 18 view .LVU783
 2943 00b2 D2E7     		b	.L279
 2944              	.LVL354:
 2945              	.L281:
 983:Core/test/unity.c ****     }
 984:Core/test/unity.c **** 
 985:Core/test/unity.c ****     while (elements--)
 986:Core/test/unity.c ****     {
 987:Core/test/unity.c ****         current_element_delta = *ptr_expected * UNITY_FLOAT_PRECISION;
 988:Core/test/unity.c **** 
ARM GAS  C:\Users\ASUS\AppData\Local\Temp\ccstHO0r.s 			page 82


 989:Core/test/unity.c ****         if (current_element_delta < 0)
 990:Core/test/unity.c ****         {
 991:Core/test/unity.c ****             /* fix delta sign for correct calculations */
 992:Core/test/unity.c ****             current_element_delta = -current_element_delta;
 993:Core/test/unity.c ****         }
 994:Core/test/unity.c **** 
 995:Core/test/unity.c ****         if (!UnityFloatsWithin(in_delta + current_element_delta, *ptr_expected, *ptr_actual))
 2946              		.loc 1 995 9 is_stmt 1 view .LVU784
 2947              		.loc 1 995 14 is_stmt 0 view .LVU785
 2948 00b4 94ED001A 		vldr.32	s2, [r4]
 2949 00b8 30EE080A 		vadd.f32	s0, s0, s16
 2950              	.LVL355:
 2951              		.loc 1 995 14 view .LVU786
 2952 00bc FFF7FEFF 		bl	UnityFloatsWithin
 2953              	.LVL356:
 2954              		.loc 1 995 12 view .LVU787
 2955 00c0 98B1     		cbz	r0, .L295
 996:Core/test/unity.c ****         {
 997:Core/test/unity.c ****             UnityTestResultsFailBegin(lineNumber);
 998:Core/test/unity.c ****             UnityPrint(UnityStrElement);
 999:Core/test/unity.c ****             UnityPrintNumberUnsigned(num_elements - elements - 1);
1000:Core/test/unity.c ****             UNITY_PRINT_EXPECTED_AND_ACTUAL_FLOAT((UNITY_DOUBLE)*ptr_expected, (UNITY_DOUBLE)*ptr_a
1001:Core/test/unity.c ****             UnityAddMsgIfSpecified(msg);
1002:Core/test/unity.c ****             UNITY_FAIL_AND_BAIL;
 2956              		.loc 1 1002 13 is_stmt 1 view .LVU788
1003:Core/test/unity.c ****         }
1004:Core/test/unity.c ****         if (flags == UNITY_ARRAY_TO_ARRAY)
 2957              		.loc 1 1004 9 view .LVU789
 2958              		.loc 1 1004 12 is_stmt 0 view .LVU790
 2959 00c2 012F     		cmp	r7, #1
 2960 00c4 33D0     		beq	.L296
 2961              	.L284:
1005:Core/test/unity.c ****         {
1006:Core/test/unity.c ****             ptr_expected++;
1007:Core/test/unity.c ****         }
1008:Core/test/unity.c ****         ptr_actual++;
 2962              		.loc 1 1008 9 is_stmt 1 view .LVU791
 2963              		.loc 1 1008 19 is_stmt 0 view .LVU792
 2964 00c6 0434     		adds	r4, r4, #4
 2965              	.LVL357:
 985:Core/test/unity.c ****     {
 2966              		.loc 1 985 20 view .LVU793
 2967 00c8 3146     		mov	r1, r6
 2968              	.LVL358:
 2969              	.L285:
 985:Core/test/unity.c ****     {
 2970              		.loc 1 985 11 is_stmt 1 view .LVU794
 985:Core/test/unity.c ****     {
 2971              		.loc 1 985 20 is_stmt 0 view .LVU795
 2972 00ca 4E1E     		subs	r6, r1, #1
 2973              	.LVL359:
 985:Core/test/unity.c ****     {
 2974              		.loc 1 985 11 view .LVU796
 2975 00cc 89B3     		cbz	r1, .L271
 987:Core/test/unity.c **** 
 2976              		.loc 1 987 9 is_stmt 1 view .LVU797
 987:Core/test/unity.c **** 
ARM GAS  C:\Users\ASUS\AppData\Local\Temp\ccstHO0r.s 			page 83


 2977              		.loc 1 987 33 is_stmt 0 view .LVU798
 2978 00ce D5ED000A 		vldr.32	s1, [r5]
 987:Core/test/unity.c **** 
 2979              		.loc 1 987 31 view .LVU799
 2980 00d2 9FED1E0A 		vldr.32	s0, .L297+16
 2981 00d6 20EE800A 		vmul.f32	s0, s1, s0
 2982              	.LVL360:
 989:Core/test/unity.c ****         {
 2983              		.loc 1 989 9 is_stmt 1 view .LVU800
 989:Core/test/unity.c ****         {
 2984              		.loc 1 989 12 is_stmt 0 view .LVU801
 2985 00da B5EEC00A 		vcmpe.f32	s0, #0
 2986 00de F1EE10FA 		vmrs	APSR_nzcv, FPSCR
 2987 00e2 E7D5     		bpl	.L281
 992:Core/test/unity.c ****         }
 2988              		.loc 1 992 13 is_stmt 1 view .LVU802
 992:Core/test/unity.c ****         }
 2989              		.loc 1 992 35 is_stmt 0 view .LVU803
 2990 00e4 B1EE400A 		vneg.f32	s0, s0
 2991              	.LVL361:
 992:Core/test/unity.c ****         }
 2992              		.loc 1 992 35 view .LVU804
 2993 00e8 E4E7     		b	.L281
 2994              	.LVL362:
 2995              	.L295:
 997:Core/test/unity.c ****             UnityPrint(UnityStrElement);
 2996              		.loc 1 997 13 is_stmt 1 view .LVU805
 2997 00ea 0A98     		ldr	r0, [sp, #40]
 2998 00ec FFF7FEFF 		bl	UnityTestResultsFailBegin
 2999              	.LVL363:
 998:Core/test/unity.c ****             UnityPrintNumberUnsigned(num_elements - elements - 1);
 3000              		.loc 1 998 13 view .LVU806
 3001 00f0 1748     		ldr	r0, .L297+20
 3002 00f2 FFF7FEFF 		bl	UnityPrint
 3003              	.LVL364:
 999:Core/test/unity.c ****             UNITY_PRINT_EXPECTED_AND_ACTUAL_FLOAT((UNITY_DOUBLE)*ptr_expected, (UNITY_DOUBLE)*ptr_a
 3004              		.loc 1 999 13 view .LVU807
 999:Core/test/unity.c ****             UNITY_PRINT_EXPECTED_AND_ACTUAL_FLOAT((UNITY_DOUBLE)*ptr_expected, (UNITY_DOUBLE)*ptr_a
 3005              		.loc 1 999 51 is_stmt 0 view .LVU808
 3006 00f6 A9EB0600 		sub	r0, r9, r6
 999:Core/test/unity.c ****             UNITY_PRINT_EXPECTED_AND_ACTUAL_FLOAT((UNITY_DOUBLE)*ptr_expected, (UNITY_DOUBLE)*ptr_a
 3007              		.loc 1 999 13 view .LVU809
 3008 00fa 0138     		subs	r0, r0, #1
 3009 00fc FFF7FEFF 		bl	UnityPrintNumberUnsigned
 3010              	.LVL365:
1000:Core/test/unity.c ****             UnityAddMsgIfSpecified(msg);
 3011              		.loc 1 1000 13 is_stmt 1 view .LVU810
1000:Core/test/unity.c ****             UnityAddMsgIfSpecified(msg);
 3012              		.loc 1 1000 13 view .LVU811
 3013 0100 1448     		ldr	r0, .L297+24
 3014 0102 FFF7FEFF 		bl	UnityPrint
 3015              	.LVL366:
1000:Core/test/unity.c ****             UnityAddMsgIfSpecified(msg);
 3016              		.loc 1 1000 13 view .LVU812
 3017 0106 95ED000A 		vldr.32	s0, [r5]
 3018 010a FFF7FEFF 		bl	UnityPrintFloat
 3019              	.LVL367:
ARM GAS  C:\Users\ASUS\AppData\Local\Temp\ccstHO0r.s 			page 84


1000:Core/test/unity.c ****             UnityAddMsgIfSpecified(msg);
 3020              		.loc 1 1000 13 view .LVU813
 3021 010e 1248     		ldr	r0, .L297+28
 3022 0110 FFF7FEFF 		bl	UnityPrint
 3023              	.LVL368:
1000:Core/test/unity.c ****             UnityAddMsgIfSpecified(msg);
 3024              		.loc 1 1000 13 view .LVU814
 3025 0114 94ED000A 		vldr.32	s0, [r4]
 3026 0118 FFF7FEFF 		bl	UnityPrintFloat
 3027              	.LVL369:
1000:Core/test/unity.c ****             UnityAddMsgIfSpecified(msg);
 3028              		.loc 1 1000 13 view .LVU815
1001:Core/test/unity.c ****             UNITY_FAIL_AND_BAIL;
 3029              		.loc 1 1001 13 view .LVU816
 3030 011c 4046     		mov	r0, r8
 3031 011e FFF7FEFF 		bl	UnityAddMsgIfSpecified
 3032              	.LVL370:
1002:Core/test/unity.c ****         }
 3033              		.loc 1 1002 13 view .LVU817
1002:Core/test/unity.c ****         }
 3034              		.loc 1 1002 13 view .LVU818
 3035 0122 0648     		ldr	r0, .L297
 3036 0124 0121     		movs	r1, #1
 3037 0126 0162     		str	r1, [r0, #32]
1002:Core/test/unity.c ****         }
 3038              		.loc 1 1002 13 view .LVU819
1002:Core/test/unity.c ****         }
 3039              		.loc 1 1002 13 view .LVU820
 3040 0128 2830     		adds	r0, r0, #40
 3041 012a FFF7FEFF 		bl	longjmp
 3042              	.LVL371:
 3043              	.L296:
1006:Core/test/unity.c ****         }
 3044              		.loc 1 1006 13 view .LVU821
1006:Core/test/unity.c ****         }
 3045              		.loc 1 1006 25 is_stmt 0 view .LVU822
 3046 012e 0435     		adds	r5, r5, #4
 3047              	.LVL372:
1006:Core/test/unity.c ****         }
 3048              		.loc 1 1006 25 view .LVU823
 3049 0130 C9E7     		b	.L284
 3050              	.LVL373:
 3051              	.L271:
1009:Core/test/unity.c ****     }
1010:Core/test/unity.c **** }
 3052              		.loc 1 1010 1 view .LVU824
 3053 0132 BDEC028B 		vldm	sp!, {d8}
 3054              	.LCFI32:
 3055              		.cfi_restore 80
 3056              		.cfi_restore 81
 3057              		.cfi_def_cfa_offset 32
 3058 0136 BDE8F883 		pop	{r3, r4, r5, r6, r7, r8, r9, pc}
 3059              	.LVL374:
 3060              	.L298:
 3061              		.loc 1 1010 1 view .LVU825
 3062 013a 00BF     		.align	2
 3063              	.L297:
ARM GAS  C:\Users\ASUS\AppData\Local\Temp\ccstHO0r.s 			page 85


 3064 013c 00000000 		.word	.LANCHOR0
 3065 0140 FFFF7F7F 		.word	2139095039
 3066 0144 28000000 		.word	.LANCHOR0+40
 3067 0148 00000000 		.word	.LANCHOR15
 3068 014c ACC52737 		.word	925353388
 3069 0150 00000000 		.word	.LANCHOR16
 3070 0154 00000000 		.word	.LANCHOR7
 3071 0158 00000000 		.word	.LANCHOR9
 3072              		.cfi_endproc
 3073              	.LFE158:
 3075              		.section	.text.UnityAssertFloatsWithin,"ax",%progbits
 3076              		.align	1
 3077              		.global	UnityAssertFloatsWithin
 3078              		.syntax unified
 3079              		.thumb
 3080              		.thumb_func
 3081              		.fpu fpv4-sp-d16
 3083              	UnityAssertFloatsWithin:
 3084              	.LVL375:
 3085              	.LFB159:
1011:Core/test/unity.c **** 
1012:Core/test/unity.c **** /*-----------------------------------------------*/
1013:Core/test/unity.c **** void UnityAssertFloatsWithin(const UNITY_FLOAT delta,
1014:Core/test/unity.c ****                              const UNITY_FLOAT expected,
1015:Core/test/unity.c ****                              const UNITY_FLOAT actual,
1016:Core/test/unity.c ****                              const char* msg,
1017:Core/test/unity.c ****                              const UNITY_LINE_TYPE lineNumber)
1018:Core/test/unity.c **** {
 3086              		.loc 1 1018 1 is_stmt 1 view -0
 3087              		.cfi_startproc
 3088              		@ args = 0, pretend = 0, frame = 0
 3089              		@ frame_needed = 0, uses_anonymous_args = 0
 3090              		.loc 1 1018 1 is_stmt 0 view .LVU827
 3091 0000 38B5     		push	{r3, r4, r5, lr}
 3092              	.LCFI33:
 3093              		.cfi_def_cfa_offset 16
 3094              		.cfi_offset 3, -16
 3095              		.cfi_offset 4, -12
 3096              		.cfi_offset 5, -8
 3097              		.cfi_offset 14, -4
 3098 0002 2DED028B 		vpush.64	{d8}
 3099              	.LCFI34:
 3100              		.cfi_def_cfa_offset 24
 3101              		.cfi_offset 80, -24
 3102              		.cfi_offset 81, -20
1019:Core/test/unity.c ****     RETURN_IF_FAIL_OR_IGNORE;
 3103              		.loc 1 1019 5 is_stmt 1 view .LVU828
 3104              		.loc 1 1019 5 view .LVU829
 3105 0006 184B     		ldr	r3, .L305
 3106 0008 1B6A     		ldr	r3, [r3, #32]
 3107 000a 73B9     		cbnz	r3, .L300
 3108 000c F0EE608A 		vmov.f32	s17, s1
 3109 0010 B0EE418A 		vmov.f32	s16, s2
 3110 0014 0446     		mov	r4, r0
 3111 0016 0D46     		mov	r5, r1
 3112              		.loc 1 1019 5 is_stmt 0 discriminator 2 view .LVU830
 3113 0018 134B     		ldr	r3, .L305
ARM GAS  C:\Users\ASUS\AppData\Local\Temp\ccstHO0r.s 			page 86


 3114 001a 5B6A     		ldr	r3, [r3, #36]
 3115 001c 2BB9     		cbnz	r3, .L300
 3116              		.loc 1 1019 5 is_stmt 1 discriminator 4 view .LVU831
1020:Core/test/unity.c **** 
1021:Core/test/unity.c **** 
1022:Core/test/unity.c ****     if (!UnityFloatsWithin(delta, expected, actual))
 3117              		.loc 1 1022 5 discriminator 4 view .LVU832
 3118              		.loc 1 1022 10 is_stmt 0 discriminator 4 view .LVU833
 3119 001e FFF7FEFF 		bl	UnityFloatsWithin
 3120              	.LVL376:
 3121              		.loc 1 1022 8 discriminator 4 view .LVU834
 3122 0022 30B1     		cbz	r0, .L304
1023:Core/test/unity.c ****     {
1024:Core/test/unity.c ****         UnityTestResultsFailBegin(lineNumber);
1025:Core/test/unity.c ****         UNITY_PRINT_EXPECTED_AND_ACTUAL_FLOAT((UNITY_DOUBLE)expected, (UNITY_DOUBLE)actual);
1026:Core/test/unity.c ****         UnityAddMsgIfSpecified(msg);
1027:Core/test/unity.c ****         UNITY_FAIL_AND_BAIL;
1028:Core/test/unity.c ****     }
1029:Core/test/unity.c **** }
 3123              		.loc 1 1029 1 view .LVU835
 3124 0024 BDEC028B 		vldm	sp!, {d8}
 3125              	.LCFI35:
 3126              		.cfi_remember_state
 3127              		.cfi_restore 80
 3128              		.cfi_restore 81
 3129              		.cfi_def_cfa_offset 16
 3130              	.LVL377:
 3131              		.loc 1 1029 1 view .LVU836
 3132 0028 38BD     		pop	{r3, r4, r5, pc}
 3133              	.LVL378:
 3134              	.L300:
 3135              	.LCFI36:
 3136              		.cfi_restore_state
1019:Core/test/unity.c **** 
 3137              		.loc 1 1019 5 is_stmt 1 discriminator 3 view .LVU837
 3138 002a 0121     		movs	r1, #1
 3139              	.LVL379:
1019:Core/test/unity.c **** 
 3140              		.loc 1 1019 5 is_stmt 0 discriminator 3 view .LVU838
 3141 002c 0F48     		ldr	r0, .L305+4
 3142              	.LVL380:
1019:Core/test/unity.c **** 
 3143              		.loc 1 1019 5 discriminator 3 view .LVU839
 3144 002e FFF7FEFF 		bl	longjmp
 3145              	.LVL381:
 3146              	.L304:
1024:Core/test/unity.c ****         UNITY_PRINT_EXPECTED_AND_ACTUAL_FLOAT((UNITY_DOUBLE)expected, (UNITY_DOUBLE)actual);
 3147              		.loc 1 1024 9 is_stmt 1 view .LVU840
 3148 0032 2846     		mov	r0, r5
 3149 0034 FFF7FEFF 		bl	UnityTestResultsFailBegin
 3150              	.LVL382:
1025:Core/test/unity.c ****         UnityAddMsgIfSpecified(msg);
 3151              		.loc 1 1025 9 view .LVU841
1025:Core/test/unity.c ****         UnityAddMsgIfSpecified(msg);
 3152              		.loc 1 1025 9 view .LVU842
 3153 0038 0D48     		ldr	r0, .L305+8
 3154 003a FFF7FEFF 		bl	UnityPrint
ARM GAS  C:\Users\ASUS\AppData\Local\Temp\ccstHO0r.s 			page 87


 3155              	.LVL383:
1025:Core/test/unity.c ****         UnityAddMsgIfSpecified(msg);
 3156              		.loc 1 1025 9 view .LVU843
 3157 003e B0EE680A 		vmov.f32	s0, s17
 3158 0042 FFF7FEFF 		bl	UnityPrintFloat
 3159              	.LVL384:
1025:Core/test/unity.c ****         UnityAddMsgIfSpecified(msg);
 3160              		.loc 1 1025 9 view .LVU844
 3161 0046 0B48     		ldr	r0, .L305+12
 3162 0048 FFF7FEFF 		bl	UnityPrint
 3163              	.LVL385:
1025:Core/test/unity.c ****         UnityAddMsgIfSpecified(msg);
 3164              		.loc 1 1025 9 view .LVU845
 3165 004c B0EE480A 		vmov.f32	s0, s16
 3166 0050 FFF7FEFF 		bl	UnityPrintFloat
 3167              	.LVL386:
1025:Core/test/unity.c ****         UnityAddMsgIfSpecified(msg);
 3168              		.loc 1 1025 9 view .LVU846
1026:Core/test/unity.c ****         UNITY_FAIL_AND_BAIL;
 3169              		.loc 1 1026 9 view .LVU847
 3170 0054 2046     		mov	r0, r4
 3171 0056 FFF7FEFF 		bl	UnityAddMsgIfSpecified
 3172              	.LVL387:
1027:Core/test/unity.c ****     }
 3173              		.loc 1 1027 9 view .LVU848
1027:Core/test/unity.c ****     }
 3174              		.loc 1 1027 9 view .LVU849
 3175 005a 0348     		ldr	r0, .L305
 3176 005c 0121     		movs	r1, #1
 3177 005e 0162     		str	r1, [r0, #32]
1027:Core/test/unity.c ****     }
 3178              		.loc 1 1027 9 view .LVU850
1027:Core/test/unity.c ****     }
 3179              		.loc 1 1027 9 view .LVU851
 3180 0060 2830     		adds	r0, r0, #40
 3181 0062 FFF7FEFF 		bl	longjmp
 3182              	.LVL388:
 3183              	.L306:
 3184 0066 00BF     		.align	2
 3185              	.L305:
 3186 0068 00000000 		.word	.LANCHOR0
 3187 006c 28000000 		.word	.LANCHOR0+40
 3188 0070 00000000 		.word	.LANCHOR7
 3189 0074 00000000 		.word	.LANCHOR9
 3190              		.cfi_endproc
 3191              	.LFE159:
 3193              		.section	.text.UnityAssertFloatsNotWithin,"ax",%progbits
 3194              		.align	1
 3195              		.global	UnityAssertFloatsNotWithin
 3196              		.syntax unified
 3197              		.thumb
 3198              		.thumb_func
 3199              		.fpu fpv4-sp-d16
 3201              	UnityAssertFloatsNotWithin:
 3202              	.LVL389:
 3203              	.LFB160:
1030:Core/test/unity.c **** 
ARM GAS  C:\Users\ASUS\AppData\Local\Temp\ccstHO0r.s 			page 88


1031:Core/test/unity.c **** /*-----------------------------------------------*/
1032:Core/test/unity.c **** void UnityAssertFloatsNotWithin(const UNITY_FLOAT delta,
1033:Core/test/unity.c ****                                 const UNITY_FLOAT expected,
1034:Core/test/unity.c ****                                 const UNITY_FLOAT actual,
1035:Core/test/unity.c ****                                 const char* msg,
1036:Core/test/unity.c ****                                 const UNITY_LINE_TYPE lineNumber)
1037:Core/test/unity.c **** {
 3204              		.loc 1 1037 1 view -0
 3205              		.cfi_startproc
 3206              		@ args = 0, pretend = 0, frame = 0
 3207              		@ frame_needed = 0, uses_anonymous_args = 0
 3208              		.loc 1 1037 1 is_stmt 0 view .LVU853
 3209 0000 38B5     		push	{r3, r4, r5, lr}
 3210              	.LCFI37:
 3211              		.cfi_def_cfa_offset 16
 3212              		.cfi_offset 3, -16
 3213              		.cfi_offset 4, -12
 3214              		.cfi_offset 5, -8
 3215              		.cfi_offset 14, -4
 3216 0002 2DED028B 		vpush.64	{d8}
 3217              	.LCFI38:
 3218              		.cfi_def_cfa_offset 24
 3219              		.cfi_offset 80, -24
 3220              		.cfi_offset 81, -20
1038:Core/test/unity.c ****     RETURN_IF_FAIL_OR_IGNORE;
 3221              		.loc 1 1038 5 is_stmt 1 view .LVU854
 3222              		.loc 1 1038 5 view .LVU855
 3223 0006 184B     		ldr	r3, .L313
 3224 0008 1B6A     		ldr	r3, [r3, #32]
 3225 000a 73B9     		cbnz	r3, .L308
 3226 000c F0EE608A 		vmov.f32	s17, s1
 3227 0010 B0EE418A 		vmov.f32	s16, s2
 3228 0014 0446     		mov	r4, r0
 3229 0016 0D46     		mov	r5, r1
 3230              		.loc 1 1038 5 is_stmt 0 discriminator 2 view .LVU856
 3231 0018 134B     		ldr	r3, .L313
 3232 001a 5B6A     		ldr	r3, [r3, #36]
 3233 001c 2BB9     		cbnz	r3, .L308
 3234              		.loc 1 1038 5 is_stmt 1 discriminator 4 view .LVU857
1039:Core/test/unity.c **** 
1040:Core/test/unity.c ****     if (UnityFloatsWithin(delta, expected, actual))
 3235              		.loc 1 1040 5 discriminator 4 view .LVU858
 3236              		.loc 1 1040 9 is_stmt 0 discriminator 4 view .LVU859
 3237 001e FFF7FEFF 		bl	UnityFloatsWithin
 3238              	.LVL390:
 3239              		.loc 1 1040 8 discriminator 4 view .LVU860
 3240 0022 30B9     		cbnz	r0, .L312
1041:Core/test/unity.c ****     {
1042:Core/test/unity.c ****         UnityTestResultsFailBegin(lineNumber);
1043:Core/test/unity.c ****         UnityPrint(UnityStrExpected);
1044:Core/test/unity.c ****         UnityPrintFloat((UNITY_DOUBLE)expected);
1045:Core/test/unity.c ****         UnityPrint(UnityStrNotEqual);
1046:Core/test/unity.c ****         UnityPrintFloat((UNITY_DOUBLE)actual);
1047:Core/test/unity.c ****         UnityAddMsgIfSpecified(msg);
1048:Core/test/unity.c ****         UNITY_FAIL_AND_BAIL;
1049:Core/test/unity.c ****     }
1050:Core/test/unity.c **** }
ARM GAS  C:\Users\ASUS\AppData\Local\Temp\ccstHO0r.s 			page 89


 3241              		.loc 1 1050 1 view .LVU861
 3242 0024 BDEC028B 		vldm	sp!, {d8}
 3243              	.LCFI39:
 3244              		.cfi_remember_state
 3245              		.cfi_restore 80
 3246              		.cfi_restore 81
 3247              		.cfi_def_cfa_offset 16
 3248              	.LVL391:
 3249              		.loc 1 1050 1 view .LVU862
 3250 0028 38BD     		pop	{r3, r4, r5, pc}
 3251              	.LVL392:
 3252              	.L308:
 3253              	.LCFI40:
 3254              		.cfi_restore_state
1038:Core/test/unity.c **** 
 3255              		.loc 1 1038 5 is_stmt 1 discriminator 3 view .LVU863
 3256 002a 0121     		movs	r1, #1
 3257              	.LVL393:
1038:Core/test/unity.c **** 
 3258              		.loc 1 1038 5 is_stmt 0 discriminator 3 view .LVU864
 3259 002c 0F48     		ldr	r0, .L313+4
 3260              	.LVL394:
1038:Core/test/unity.c **** 
 3261              		.loc 1 1038 5 discriminator 3 view .LVU865
 3262 002e FFF7FEFF 		bl	longjmp
 3263              	.LVL395:
 3264              	.L312:
1042:Core/test/unity.c ****         UnityPrint(UnityStrExpected);
 3265              		.loc 1 1042 9 is_stmt 1 view .LVU866
 3266 0032 2846     		mov	r0, r5
 3267 0034 FFF7FEFF 		bl	UnityTestResultsFailBegin
 3268              	.LVL396:
1043:Core/test/unity.c ****         UnityPrintFloat((UNITY_DOUBLE)expected);
 3269              		.loc 1 1043 9 view .LVU867
 3270 0038 0D48     		ldr	r0, .L313+8
 3271 003a FFF7FEFF 		bl	UnityPrint
 3272              	.LVL397:
1044:Core/test/unity.c ****         UnityPrint(UnityStrNotEqual);
 3273              		.loc 1 1044 9 view .LVU868
 3274 003e B0EE680A 		vmov.f32	s0, s17
 3275 0042 FFF7FEFF 		bl	UnityPrintFloat
 3276              	.LVL398:
1045:Core/test/unity.c ****         UnityPrintFloat((UNITY_DOUBLE)actual);
 3277              		.loc 1 1045 9 view .LVU869
 3278 0046 0B48     		ldr	r0, .L313+12
 3279 0048 FFF7FEFF 		bl	UnityPrint
 3280              	.LVL399:
1046:Core/test/unity.c ****         UnityAddMsgIfSpecified(msg);
 3281              		.loc 1 1046 9 view .LVU870
 3282 004c B0EE480A 		vmov.f32	s0, s16
 3283 0050 FFF7FEFF 		bl	UnityPrintFloat
 3284              	.LVL400:
1047:Core/test/unity.c ****         UNITY_FAIL_AND_BAIL;
 3285              		.loc 1 1047 9 view .LVU871
 3286 0054 2046     		mov	r0, r4
 3287 0056 FFF7FEFF 		bl	UnityAddMsgIfSpecified
 3288              	.LVL401:
ARM GAS  C:\Users\ASUS\AppData\Local\Temp\ccstHO0r.s 			page 90


1048:Core/test/unity.c ****     }
 3289              		.loc 1 1048 9 view .LVU872
1048:Core/test/unity.c ****     }
 3290              		.loc 1 1048 9 view .LVU873
 3291 005a 0348     		ldr	r0, .L313
 3292 005c 0121     		movs	r1, #1
 3293 005e 0162     		str	r1, [r0, #32]
1048:Core/test/unity.c ****     }
 3294              		.loc 1 1048 9 view .LVU874
1048:Core/test/unity.c ****     }
 3295              		.loc 1 1048 9 view .LVU875
 3296 0060 2830     		adds	r0, r0, #40
 3297 0062 FFF7FEFF 		bl	longjmp
 3298              	.LVL402:
 3299              	.L314:
 3300 0066 00BF     		.align	2
 3301              	.L313:
 3302 0068 00000000 		.word	.LANCHOR0
 3303 006c 28000000 		.word	.LANCHOR0+40
 3304 0070 00000000 		.word	.LANCHOR7
 3305 0074 00000000 		.word	.LANCHOR14
 3306              		.cfi_endproc
 3307              	.LFE160:
 3309              		.section	.text.UnityAssertGreaterOrLessFloat,"ax",%progbits
 3310              		.align	1
 3311              		.global	UnityAssertGreaterOrLessFloat
 3312              		.syntax unified
 3313              		.thumb
 3314              		.thumb_func
 3315              		.fpu fpv4-sp-d16
 3317              	UnityAssertGreaterOrLessFloat:
 3318              	.LVL403:
 3319              	.LFB161:
1051:Core/test/unity.c **** 
1052:Core/test/unity.c **** /*-----------------------------------------------*/
1053:Core/test/unity.c **** void UnityAssertGreaterOrLessFloat(const UNITY_FLOAT threshold,
1054:Core/test/unity.c ****                                    const UNITY_FLOAT actual,
1055:Core/test/unity.c ****                                    const UNITY_COMPARISON_T compare,
1056:Core/test/unity.c ****                                    const char* msg,
1057:Core/test/unity.c ****                                    const UNITY_LINE_TYPE lineNumber)
1058:Core/test/unity.c **** {
 3320              		.loc 1 1058 1 view -0
 3321              		.cfi_startproc
 3322              		@ args = 0, pretend = 0, frame = 0
 3323              		@ frame_needed = 0, uses_anonymous_args = 0
 3324              		.loc 1 1058 1 is_stmt 0 view .LVU877
 3325 0000 2DE9F041 		push	{r4, r5, r6, r7, r8, lr}
 3326              	.LCFI41:
 3327              		.cfi_def_cfa_offset 24
 3328              		.cfi_offset 4, -24
 3329              		.cfi_offset 5, -20
 3330              		.cfi_offset 6, -16
 3331              		.cfi_offset 7, -12
 3332              		.cfi_offset 8, -8
 3333              		.cfi_offset 14, -4
 3334 0004 2DED028B 		vpush.64	{d8}
 3335              	.LCFI42:
ARM GAS  C:\Users\ASUS\AppData\Local\Temp\ccstHO0r.s 			page 91


 3336              		.cfi_def_cfa_offset 32
 3337              		.cfi_offset 80, -32
 3338              		.cfi_offset 81, -28
1059:Core/test/unity.c ****     int failed;
 3339              		.loc 1 1059 5 is_stmt 1 view .LVU878
1060:Core/test/unity.c **** 
1061:Core/test/unity.c ****     RETURN_IF_FAIL_OR_IGNORE;
 3340              		.loc 1 1061 5 view .LVU879
 3341              		.loc 1 1061 5 view .LVU880
 3342 0008 324B     		ldr	r3, .L333
 3343 000a 1B6A     		ldr	r3, [r3, #32]
 3344 000c 9BB9     		cbnz	r3, .L316
 3345 000e B0EE408A 		vmov.f32	s16, s0
 3346 0012 F0EE608A 		vmov.f32	s17, s1
 3347 0016 0446     		mov	r4, r0
 3348 0018 0E46     		mov	r6, r1
 3349 001a 1546     		mov	r5, r2
 3350              		.loc 1 1061 5 is_stmt 0 discriminator 2 view .LVU881
 3351 001c 2D4B     		ldr	r3, .L333
 3352 001e 5B6A     		ldr	r3, [r3, #36]
 3353 0020 4BB9     		cbnz	r3, .L316
 3354              		.loc 1 1061 5 is_stmt 1 discriminator 4 view .LVU882
1062:Core/test/unity.c **** 
1063:Core/test/unity.c ****     failed = 0;
 3355              		.loc 1 1063 5 discriminator 4 view .LVU883
 3356              	.LVL404:
1064:Core/test/unity.c **** 
1065:Core/test/unity.c ****     /* Checking for "not success" rather than failure to get the right result for NaN */
1066:Core/test/unity.c ****     if (!(actual < threshold) && (compare & UNITY_SMALLER_THAN)) { failed = 1; }
 3357              		.loc 1 1066 5 discriminator 4 view .LVU884
 3358              		.loc 1 1066 8 is_stmt 0 discriminator 4 view .LVU885
 3359 0022 F4EEC00A 		vcmpe.f32	s1, s0
 3360 0026 F1EE10FA 		vmrs	APSR_nzcv, FPSCR
 3361 002a 08D4     		bmi	.L325
 3362              		.loc 1 1066 31 discriminator 1 view .LVU886
 3363 002c 10F0040F 		tst	r0, #4
 3364 0030 22D1     		bne	.L326
1063:Core/test/unity.c **** 
 3365              		.loc 1 1063 12 view .LVU887
 3366 0032 0027     		movs	r7, #0
 3367 0034 04E0     		b	.L318
 3368              	.LVL405:
 3369              	.L316:
1061:Core/test/unity.c **** 
 3370              		.loc 1 1061 5 is_stmt 1 discriminator 3 view .LVU888
 3371 0036 0121     		movs	r1, #1
 3372              	.LVL406:
1061:Core/test/unity.c **** 
 3373              		.loc 1 1061 5 is_stmt 0 discriminator 3 view .LVU889
 3374 0038 2748     		ldr	r0, .L333+4
 3375              	.LVL407:
1061:Core/test/unity.c **** 
 3376              		.loc 1 1061 5 discriminator 3 view .LVU890
 3377 003a FFF7FEFF 		bl	longjmp
 3378              	.LVL408:
 3379              	.L325:
1063:Core/test/unity.c **** 
ARM GAS  C:\Users\ASUS\AppData\Local\Temp\ccstHO0r.s 			page 92


 3380              		.loc 1 1063 12 view .LVU891
 3381 003e 0027     		movs	r7, #0
 3382              	.L318:
 3383              	.LVL409:
1067:Core/test/unity.c ****     if (!(actual > threshold) && (compare & UNITY_GREATER_THAN)) { failed = 1; }
 3384              		.loc 1 1067 5 is_stmt 1 view .LVU892
 3385              		.loc 1 1067 8 is_stmt 0 view .LVU893
 3386 0040 F4EEC88A 		vcmpe.f32	s17, s16
 3387 0044 F1EE10FA 		vmrs	APSR_nzcv, FPSCR
 3388 0048 03DC     		bgt	.L319
 3389              		.loc 1 1067 31 discriminator 1 view .LVU894
 3390 004a 14F0020F 		tst	r4, #2
 3391 004e 00D0     		beq	.L319
 3392              		.loc 1 1067 75 view .LVU895
 3393 0050 0127     		movs	r7, #1
 3394              	.LVL410:
 3395              	.L319:
1068:Core/test/unity.c **** 
1069:Core/test/unity.c ****     if ((compare & UNITY_EQUAL_TO) && UnityFloatsWithin(threshold * UNITY_FLOAT_PRECISION, threshol
 3396              		.loc 1 1069 5 is_stmt 1 view .LVU896
 3397              		.loc 1 1069 8 is_stmt 0 view .LVU897
 3398 0052 14F00108 		ands	r8, r4, #1
 3399 0056 0AD0     		beq	.L320
 3400              		.loc 1 1069 39 discriminator 1 view .LVU898
 3401 0058 B0EE681A 		vmov.f32	s2, s17
 3402 005c F0EE480A 		vmov.f32	s1, s16
 3403              	.LVL411:
 3404              		.loc 1 1069 39 discriminator 1 view .LVU899
 3405 0060 9FED1E0A 		vldr.32	s0, .L333+8
 3406              	.LVL412:
 3407              		.loc 1 1069 39 discriminator 1 view .LVU900
 3408 0064 28EE000A 		vmul.f32	s0, s16, s0
 3409 0068 FFF7FEFF 		bl	UnityFloatsWithin
 3410              	.LVL413:
 3411              		.loc 1 1069 36 discriminator 1 view .LVU901
 3412 006c 00B9     		cbnz	r0, .L315
 3413              	.L320:
1070:Core/test/unity.c **** 
1071:Core/test/unity.c ****     if (failed)
 3414              		.loc 1 1071 5 is_stmt 1 view .LVU902
 3415              		.loc 1 1071 8 is_stmt 0 view .LVU903
 3416 006e 2FB9     		cbnz	r7, .L329
 3417              	.L315:
1072:Core/test/unity.c ****     {
1073:Core/test/unity.c ****         UnityTestResultsFailBegin(lineNumber);
1074:Core/test/unity.c ****         UnityPrint(UnityStrExpected);
1075:Core/test/unity.c ****         UnityPrintFloat(actual);
1076:Core/test/unity.c ****         if (compare & UNITY_GREATER_THAN) { UnityPrint(UnityStrGt); }
1077:Core/test/unity.c ****         if (compare & UNITY_SMALLER_THAN) { UnityPrint(UnityStrLt); }
1078:Core/test/unity.c ****         if (compare & UNITY_EQUAL_TO)     { UnityPrint(UnityStrOrEqual);  }
1079:Core/test/unity.c ****         UnityPrintFloat(threshold);
1080:Core/test/unity.c ****         UnityAddMsgIfSpecified(msg);
1081:Core/test/unity.c ****         UNITY_FAIL_AND_BAIL;
1082:Core/test/unity.c ****     }
1083:Core/test/unity.c **** }
 3418              		.loc 1 1083 1 view .LVU904
 3419 0070 BDEC028B 		vldm	sp!, {d8}
ARM GAS  C:\Users\ASUS\AppData\Local\Temp\ccstHO0r.s 			page 93


 3420              	.LCFI43:
 3421              		.cfi_remember_state
 3422              		.cfi_restore 80
 3423              		.cfi_restore 81
 3424              		.cfi_def_cfa_offset 24
 3425              	.LVL414:
 3426              		.loc 1 1083 1 view .LVU905
 3427 0074 BDE8F081 		pop	{r4, r5, r6, r7, r8, pc}
 3428              	.LVL415:
 3429              	.L326:
 3430              	.LCFI44:
 3431              		.cfi_restore_state
1066:Core/test/unity.c ****     if (!(actual > threshold) && (compare & UNITY_GREATER_THAN)) { failed = 1; }
 3432              		.loc 1 1066 75 view .LVU906
 3433 0078 0127     		movs	r7, #1
 3434 007a E1E7     		b	.L318
 3435              	.LVL416:
 3436              	.L329:
1073:Core/test/unity.c ****         UnityPrint(UnityStrExpected);
 3437              		.loc 1 1073 9 is_stmt 1 view .LVU907
 3438 007c 2846     		mov	r0, r5
 3439 007e FFF7FEFF 		bl	UnityTestResultsFailBegin
 3440              	.LVL417:
1074:Core/test/unity.c ****         UnityPrintFloat(actual);
 3441              		.loc 1 1074 9 view .LVU908
 3442 0082 1748     		ldr	r0, .L333+12
 3443 0084 FFF7FEFF 		bl	UnityPrint
 3444              	.LVL418:
1075:Core/test/unity.c ****         if (compare & UNITY_GREATER_THAN) { UnityPrint(UnityStrGt); }
 3445              		.loc 1 1075 9 view .LVU909
 3446 0088 B0EE680A 		vmov.f32	s0, s17
 3447 008c FFF7FEFF 		bl	UnityPrintFloat
 3448              	.LVL419:
1076:Core/test/unity.c ****         if (compare & UNITY_SMALLER_THAN) { UnityPrint(UnityStrLt); }
 3449              		.loc 1 1076 9 view .LVU910
1076:Core/test/unity.c ****         if (compare & UNITY_SMALLER_THAN) { UnityPrint(UnityStrLt); }
 3450              		.loc 1 1076 12 is_stmt 0 view .LVU911
 3451 0090 14F0020F 		tst	r4, #2
 3452 0094 12D1     		bne	.L330
 3453              	.L322:
1077:Core/test/unity.c ****         if (compare & UNITY_EQUAL_TO)     { UnityPrint(UnityStrOrEqual);  }
 3454              		.loc 1 1077 9 is_stmt 1 view .LVU912
1077:Core/test/unity.c ****         if (compare & UNITY_EQUAL_TO)     { UnityPrint(UnityStrOrEqual);  }
 3455              		.loc 1 1077 12 is_stmt 0 view .LVU913
 3456 0096 14F0040F 		tst	r4, #4
 3457 009a 13D1     		bne	.L331
 3458              	.L323:
1078:Core/test/unity.c ****         UnityPrintFloat(threshold);
 3459              		.loc 1 1078 9 is_stmt 1 view .LVU914
1078:Core/test/unity.c ****         UnityPrintFloat(threshold);
 3460              		.loc 1 1078 12 is_stmt 0 view .LVU915
 3461 009c B8F1000F 		cmp	r8, #0
 3462 00a0 14D1     		bne	.L332
 3463              	.L324:
1079:Core/test/unity.c ****         UnityAddMsgIfSpecified(msg);
 3464              		.loc 1 1079 9 is_stmt 1 view .LVU916
 3465 00a2 B0EE480A 		vmov.f32	s0, s16
ARM GAS  C:\Users\ASUS\AppData\Local\Temp\ccstHO0r.s 			page 94


 3466 00a6 FFF7FEFF 		bl	UnityPrintFloat
 3467              	.LVL420:
1080:Core/test/unity.c ****         UNITY_FAIL_AND_BAIL;
 3468              		.loc 1 1080 9 view .LVU917
 3469 00aa 3046     		mov	r0, r6
 3470 00ac FFF7FEFF 		bl	UnityAddMsgIfSpecified
 3471              	.LVL421:
1081:Core/test/unity.c ****     }
 3472              		.loc 1 1081 9 view .LVU918
1081:Core/test/unity.c ****     }
 3473              		.loc 1 1081 9 view .LVU919
 3474 00b0 0848     		ldr	r0, .L333
 3475 00b2 0121     		movs	r1, #1
 3476 00b4 0162     		str	r1, [r0, #32]
1081:Core/test/unity.c ****     }
 3477              		.loc 1 1081 9 view .LVU920
1081:Core/test/unity.c ****     }
 3478              		.loc 1 1081 9 view .LVU921
 3479 00b6 2830     		adds	r0, r0, #40
 3480 00b8 FFF7FEFF 		bl	longjmp
 3481              	.LVL422:
 3482              	.L330:
1076:Core/test/unity.c ****         if (compare & UNITY_SMALLER_THAN) { UnityPrint(UnityStrLt); }
 3483              		.loc 1 1076 45 discriminator 1 view .LVU922
 3484 00bc 0948     		ldr	r0, .L333+16
 3485 00be FFF7FEFF 		bl	UnityPrint
 3486              	.LVL423:
 3487 00c2 E8E7     		b	.L322
 3488              	.L331:
1077:Core/test/unity.c ****         if (compare & UNITY_EQUAL_TO)     { UnityPrint(UnityStrOrEqual);  }
 3489              		.loc 1 1077 45 discriminator 1 view .LVU923
 3490 00c4 0848     		ldr	r0, .L333+20
 3491 00c6 FFF7FEFF 		bl	UnityPrint
 3492              	.LVL424:
 3493 00ca E7E7     		b	.L323
 3494              	.L332:
1078:Core/test/unity.c ****         UnityPrintFloat(threshold);
 3495              		.loc 1 1078 45 discriminator 1 view .LVU924
 3496 00cc 0748     		ldr	r0, .L333+24
 3497 00ce FFF7FEFF 		bl	UnityPrint
 3498              	.LVL425:
 3499 00d2 E6E7     		b	.L324
 3500              	.L334:
 3501              		.align	2
 3502              	.L333:
 3503 00d4 00000000 		.word	.LANCHOR0
 3504 00d8 28000000 		.word	.LANCHOR0+40
 3505 00dc ACC52737 		.word	925353388
 3506 00e0 00000000 		.word	.LANCHOR7
 3507 00e4 00000000 		.word	.LANCHOR11
 3508 00e8 00000000 		.word	.LANCHOR12
 3509 00ec 00000000 		.word	.LANCHOR13
 3510              		.cfi_endproc
 3511              	.LFE161:
 3513              		.section	.text.UnityAssertFloatSpecial,"ax",%progbits
 3514              		.align	1
 3515              		.global	UnityAssertFloatSpecial
ARM GAS  C:\Users\ASUS\AppData\Local\Temp\ccstHO0r.s 			page 95


 3516              		.syntax unified
 3517              		.thumb
 3518              		.thumb_func
 3519              		.fpu fpv4-sp-d16
 3521              	UnityAssertFloatSpecial:
 3522              	.LVL426:
 3523              	.LFB162:
1084:Core/test/unity.c **** 
1085:Core/test/unity.c **** /*-----------------------------------------------*/
1086:Core/test/unity.c **** void UnityAssertFloatSpecial(const UNITY_FLOAT actual,
1087:Core/test/unity.c ****                              const char* msg,
1088:Core/test/unity.c ****                              const UNITY_LINE_TYPE lineNumber,
1089:Core/test/unity.c ****                              const UNITY_FLOAT_TRAIT_T style)
1090:Core/test/unity.c **** {
 3524              		.loc 1 1090 1 view -0
 3525              		.cfi_startproc
 3526              		@ args = 0, pretend = 0, frame = 16
 3527              		@ frame_needed = 0, uses_anonymous_args = 0
 3528              		.loc 1 1090 1 is_stmt 0 view .LVU926
 3529 0000 70B5     		push	{r4, r5, r6, lr}
 3530              	.LCFI45:
 3531              		.cfi_def_cfa_offset 16
 3532              		.cfi_offset 4, -16
 3533              		.cfi_offset 5, -12
 3534              		.cfi_offset 6, -8
 3535              		.cfi_offset 14, -4
 3536 0002 2DED028B 		vpush.64	{d8}
 3537              	.LCFI46:
 3538              		.cfi_def_cfa_offset 24
 3539              		.cfi_offset 80, -24
 3540              		.cfi_offset 81, -20
 3541 0006 84B0     		sub	sp, sp, #16
 3542              	.LCFI47:
 3543              		.cfi_def_cfa_offset 40
 3544 0008 0446     		mov	r4, r0
 3545 000a 8E46     		mov	lr, r1
 3546 000c 9446     		mov	ip, r2
1091:Core/test/unity.c ****     const char* trait_names[] = {UnityStrInf, UnityStrNegInf, UnityStrNaN, UnityStrDet};
 3547              		.loc 1 1091 5 is_stmt 1 view .LVU927
 3548              		.loc 1 1091 17 is_stmt 0 view .LVU928
 3549 000e 484B     		ldr	r3, .L361
 3550 0010 0FCB     		ldm	r3, {r0, r1, r2, r3}
 3551              	.LVL427:
 3552              		.loc 1 1091 17 view .LVU929
 3553 0012 04AD     		add	r5, sp, #16
 3554 0014 05E90F00 		stmdb	r5, {r0, r1, r2, r3}
1092:Core/test/unity.c ****     UNITY_INT should_be_trait = ((UNITY_INT)style & 1);
 3555              		.loc 1 1092 5 is_stmt 1 view .LVU930
 3556              	.LVL428:
1093:Core/test/unity.c ****     UNITY_INT is_trait        = !should_be_trait;
 3557              		.loc 1 1093 5 view .LVU931
 3558              		.loc 1 1093 33 is_stmt 0 view .LVU932
 3559 0018 1CF00105 		ands	r5, ip, #1
 3560              	.LVL429:
 3561              		.loc 1 1093 33 view .LVU933
 3562 001c 0CBF     		ite	eq
 3563 001e 0123     		moveq	r3, #1
ARM GAS  C:\Users\ASUS\AppData\Local\Temp\ccstHO0r.s 			page 96


 3564 0020 0023     		movne	r3, #0
 3565              	.LVL430:
1094:Core/test/unity.c ****     UNITY_INT trait_index     = (UNITY_INT)(style >> 1);
 3566              		.loc 1 1094 5 is_stmt 1 view .LVU934
1095:Core/test/unity.c **** 
1096:Core/test/unity.c ****     RETURN_IF_FAIL_OR_IGNORE;
 3567              		.loc 1 1096 5 view .LVU935
 3568              		.loc 1 1096 5 view .LVU936
 3569 0022 444A     		ldr	r2, .L361+4
 3570 0024 126A     		ldr	r2, [r2, #32]
 3571 0026 7AB9     		cbnz	r2, .L336
 3572 0028 B0EE408A 		vmov.f32	s16, s0
 3573 002c 4FEA5C06 		lsr	r6, ip, #1
 3574              	.LVL431:
 3575              		.loc 1 1096 5 is_stmt 0 discriminator 2 view .LVU937
 3576 0030 404A     		ldr	r2, .L361+4
 3577 0032 526A     		ldr	r2, [r2, #36]
 3578 0034 42B9     		cbnz	r2, .L336
 3579              		.loc 1 1096 5 is_stmt 1 view .LVU938
1097:Core/test/unity.c **** 
1098:Core/test/unity.c ****     switch (style)
 3580              		.loc 1 1098 5 view .LVU939
 3581 0036 BCF1070F 		cmp	ip, #7
 3582 003a 4AD8     		bhi	.L338
 3583 003c DFE80CF0 		tbb	[pc, ip]
 3584              	.L340:
 3585 0040 08       		.byte	(.L343-.L340)/2
 3586 0041 08       		.byte	(.L343-.L340)/2
 3587 0042 1A       		.byte	(.L342-.L340)/2
 3588 0043 1A       		.byte	(.L342-.L340)/2
 3589 0044 2A       		.byte	(.L341-.L340)/2
 3590 0045 2A       		.byte	(.L341-.L340)/2
 3591 0046 37       		.byte	(.L339-.L340)/2
 3592 0047 37       		.byte	(.L339-.L340)/2
 3593              	.LVL432:
 3594              		.p2align 1
 3595              	.L336:
1096:Core/test/unity.c **** 
 3596              		.loc 1 1096 5 discriminator 3 view .LVU940
 3597 0048 0121     		movs	r1, #1
 3598 004a 3B48     		ldr	r0, .L361+8
 3599 004c FFF7FEFF 		bl	longjmp
 3600              	.LVL433:
 3601              	.L343:
1099:Core/test/unity.c ****     {
1100:Core/test/unity.c ****         case UNITY_FLOAT_IS_INF:
1101:Core/test/unity.c ****         case UNITY_FLOAT_IS_NOT_INF:
1102:Core/test/unity.c ****             is_trait = UNITY_IS_INF(actual) && (actual > 0);
 3602              		.loc 1 1102 13 view .LVU941
 3603              		.loc 1 1102 24 is_stmt 0 view .LVU942
 3604 0050 F0EEC07A 		vabs.f32	s15, s0
 3605              		.loc 1 1102 45 view .LVU943
 3606 0054 9FED397A 		vldr.32	s14, .L361+12
 3607 0058 F4EE477A 		vcmp.f32	s15, s14
 3608 005c F1EE10FA 		vmrs	APSR_nzcv, FPSCR
 3609 0060 3BDD     		ble	.L348
 3610              		.loc 1 1102 45 discriminator 1 view .LVU944
ARM GAS  C:\Users\ASUS\AppData\Local\Temp\ccstHO0r.s 			page 97


 3611 0062 B5EEC00A 		vcmpe.f32	s0, #0
 3612 0066 F1EE10FA 		vmrs	APSR_nzcv, FPSCR
 3613 006a 01DD     		ble	.L357
 3614              		.loc 1 1102 45 view .LVU945
 3615 006c 0123     		movs	r3, #1
 3616              	.LVL434:
 3617              		.loc 1 1102 45 view .LVU946
 3618 006e 18E0     		b	.L344
 3619              	.LVL435:
 3620              	.L357:
 3621              		.loc 1 1102 45 view .LVU947
 3622 0070 0023     		movs	r3, #0
 3623              	.LVL436:
 3624              		.loc 1 1102 45 view .LVU948
 3625 0072 16E0     		b	.L344
 3626              	.LVL437:
 3627              	.L342:
1103:Core/test/unity.c ****             break;
1104:Core/test/unity.c ****         case UNITY_FLOAT_IS_NEG_INF:
1105:Core/test/unity.c ****         case UNITY_FLOAT_IS_NOT_NEG_INF:
1106:Core/test/unity.c ****             is_trait = UNITY_IS_INF(actual) && (actual < 0);
 3628              		.loc 1 1106 13 is_stmt 1 view .LVU949
 3629              		.loc 1 1106 24 is_stmt 0 view .LVU950
 3630 0074 F0EEC07A 		vabs.f32	s15, s0
 3631              		.loc 1 1106 45 view .LVU951
 3632 0078 9FED307A 		vldr.32	s14, .L361+12
 3633 007c F4EE477A 		vcmp.f32	s15, s14
 3634 0080 F1EE10FA 		vmrs	APSR_nzcv, FPSCR
 3635 0084 2BDD     		ble	.L350
 3636              		.loc 1 1106 45 discriminator 1 view .LVU952
 3637 0086 B5EEC00A 		vcmpe.f32	s0, #0
 3638 008a F1EE10FA 		vmrs	APSR_nzcv, FPSCR
 3639 008e 28D4     		bmi	.L351
 3640              		.loc 1 1106 45 view .LVU953
 3641 0090 0023     		movs	r3, #0
 3642              	.LVL438:
 3643              		.loc 1 1106 45 view .LVU954
 3644 0092 06E0     		b	.L344
 3645              	.LVL439:
 3646              	.L341:
1107:Core/test/unity.c ****             break;
1108:Core/test/unity.c **** 
1109:Core/test/unity.c ****         case UNITY_FLOAT_IS_NAN:
1110:Core/test/unity.c ****         case UNITY_FLOAT_IS_NOT_NAN:
1111:Core/test/unity.c ****             is_trait = UNITY_IS_NAN(actual) ? 1 : 0;
 3647              		.loc 1 1111 13 is_stmt 1 view .LVU955
 3648              		.loc 1 1111 49 is_stmt 0 view .LVU956
 3649 0094 B4EE400A 		vcmp.f32	s0, s0
 3650 0098 F1EE10FA 		vmrs	APSR_nzcv, FPSCR
 3651 009c 6CBF     		ite	vs
 3652 009e 0123     		movvs	r3, #1
 3653              	.LVL440:
 3654              		.loc 1 1111 49 view .LVU957
 3655 00a0 0023     		movvc	r3, #0
 3656              	.LVL441:
1112:Core/test/unity.c ****             break;
 3657              		.loc 1 1112 13 is_stmt 1 view .LVU958
ARM GAS  C:\Users\ASUS\AppData\Local\Temp\ccstHO0r.s 			page 98


 3658              	.L344:
1113:Core/test/unity.c **** 
1114:Core/test/unity.c ****         case UNITY_FLOAT_IS_DET: /* A determinate number is non infinite and not NaN. */
1115:Core/test/unity.c ****         case UNITY_FLOAT_IS_NOT_DET:
1116:Core/test/unity.c ****             is_trait = !UNITY_IS_INF(actual) && !UNITY_IS_NAN(actual);
1117:Core/test/unity.c ****             break;
1118:Core/test/unity.c **** 
1119:Core/test/unity.c ****         case UNITY_FLOAT_INVALID_TRAIT:  /* Supress warning */
1120:Core/test/unity.c ****         default: /* including UNITY_FLOAT_INVALID_TRAIT */
1121:Core/test/unity.c ****             trait_index = 0;
1122:Core/test/unity.c ****             trait_names[0] = UnityStrInvalidFloatTrait;
1123:Core/test/unity.c ****             break;
1124:Core/test/unity.c ****     }
1125:Core/test/unity.c **** 
1126:Core/test/unity.c ****     if (is_trait != should_be_trait)
 3659              		.loc 1 1126 5 view .LVU959
 3660              		.loc 1 1126 8 is_stmt 0 view .LVU960
 3661 00a2 AB42     		cmp	r3, r5
 3662 00a4 21D1     		bne	.L358
1127:Core/test/unity.c ****     {
1128:Core/test/unity.c ****         UnityTestResultsFailBegin(lineNumber);
1129:Core/test/unity.c ****         UnityPrint(UnityStrExpected);
1130:Core/test/unity.c ****         if (!should_be_trait)
1131:Core/test/unity.c ****         {
1132:Core/test/unity.c ****             UnityPrint(UnityStrNot);
1133:Core/test/unity.c ****         }
1134:Core/test/unity.c ****         UnityPrint(trait_names[trait_index]);
1135:Core/test/unity.c ****         UnityPrint(UnityStrWas);
1136:Core/test/unity.c **** #ifndef UNITY_EXCLUDE_FLOAT_PRINT
1137:Core/test/unity.c ****         UnityPrintFloat((UNITY_DOUBLE)actual);
1138:Core/test/unity.c **** #else
1139:Core/test/unity.c ****         if (should_be_trait)
1140:Core/test/unity.c ****         {
1141:Core/test/unity.c ****             UnityPrint(UnityStrNot);
1142:Core/test/unity.c ****         }
1143:Core/test/unity.c ****         UnityPrint(trait_names[trait_index]);
1144:Core/test/unity.c **** #endif
1145:Core/test/unity.c ****         UnityAddMsgIfSpecified(msg);
1146:Core/test/unity.c ****         UNITY_FAIL_AND_BAIL;
1147:Core/test/unity.c ****     }
1148:Core/test/unity.c **** }
 3663              		.loc 1 1148 1 view .LVU961
 3664 00a6 04B0     		add	sp, sp, #16
 3665              	.LCFI48:
 3666              		.cfi_remember_state
 3667              		.cfi_def_cfa_offset 24
 3668              		@ sp needed
 3669 00a8 BDEC028B 		vldm	sp!, {d8}
 3670              	.LCFI49:
 3671              		.cfi_restore 80
 3672              		.cfi_restore 81
 3673              		.cfi_def_cfa_offset 16
 3674 00ac 70BD     		pop	{r4, r5, r6, pc}
 3675              	.LVL442:
 3676              	.L339:
 3677              	.LCFI50:
 3678              		.cfi_restore_state
ARM GAS  C:\Users\ASUS\AppData\Local\Temp\ccstHO0r.s 			page 99


1116:Core/test/unity.c ****             break;
 3679              		.loc 1 1116 13 is_stmt 1 view .LVU962
1116:Core/test/unity.c ****             break;
 3680              		.loc 1 1116 25 is_stmt 0 view .LVU963
 3681 00ae F0EEC07A 		vabs.f32	s15, s0
1116:Core/test/unity.c ****             break;
 3682              		.loc 1 1116 46 view .LVU964
 3683 00b2 9FED227A 		vldr.32	s14, .L361+12
 3684 00b6 F4EE477A 		vcmp.f32	s15, s14
 3685 00ba F1EE10FA 		vmrs	APSR_nzcv, FPSCR
 3686 00be 12DC     		bgt	.L355
1116:Core/test/unity.c ****             break;
 3687              		.loc 1 1116 46 discriminator 1 view .LVU965
 3688 00c0 B4EE400A 		vcmp.f32	s0, s0
 3689 00c4 F1EE10FA 		vmrs	APSR_nzcv, FPSCR
 3690 00c8 01D6     		bvs	.L359
1116:Core/test/unity.c ****             break;
 3691              		.loc 1 1116 46 view .LVU966
 3692 00ca 0123     		movs	r3, #1
 3693              	.LVL443:
1116:Core/test/unity.c ****             break;
 3694              		.loc 1 1116 46 view .LVU967
 3695 00cc E9E7     		b	.L344
 3696              	.LVL444:
 3697              	.L359:
1116:Core/test/unity.c ****             break;
 3698              		.loc 1 1116 46 view .LVU968
 3699 00ce 0023     		movs	r3, #0
 3700              	.LVL445:
1116:Core/test/unity.c ****             break;
 3701              		.loc 1 1116 46 view .LVU969
 3702 00d0 E7E7     		b	.L344
 3703              	.LVL446:
 3704              	.L338:
1121:Core/test/unity.c ****             trait_names[0] = UnityStrInvalidFloatTrait;
 3705              		.loc 1 1121 13 is_stmt 1 view .LVU970
1122:Core/test/unity.c ****             break;
 3706              		.loc 1 1122 13 view .LVU971
1122:Core/test/unity.c ****             break;
 3707              		.loc 1 1122 28 is_stmt 0 view .LVU972
 3708 00d2 1B4A     		ldr	r2, .L361+16
 3709 00d4 0092     		str	r2, [sp]
1123:Core/test/unity.c ****     }
 3710              		.loc 1 1123 13 is_stmt 1 view .LVU973
1121:Core/test/unity.c ****             trait_names[0] = UnityStrInvalidFloatTrait;
 3711              		.loc 1 1121 25 is_stmt 0 view .LVU974
 3712 00d6 0026     		movs	r6, #0
1123:Core/test/unity.c ****     }
 3713              		.loc 1 1123 13 view .LVU975
 3714 00d8 E3E7     		b	.L344
 3715              	.LVL447:
 3716              	.L348:
1102:Core/test/unity.c ****             break;
 3717              		.loc 1 1102 45 view .LVU976
 3718 00da 0023     		movs	r3, #0
 3719              	.LVL448:
1102:Core/test/unity.c ****             break;
ARM GAS  C:\Users\ASUS\AppData\Local\Temp\ccstHO0r.s 			page 100


 3720              		.loc 1 1102 45 view .LVU977
 3721 00dc E1E7     		b	.L344
 3722              	.LVL449:
 3723              	.L350:
1106:Core/test/unity.c ****             break;
 3724              		.loc 1 1106 45 view .LVU978
 3725 00de 0023     		movs	r3, #0
 3726              	.LVL450:
1106:Core/test/unity.c ****             break;
 3727              		.loc 1 1106 45 view .LVU979
 3728 00e0 DFE7     		b	.L344
 3729              	.LVL451:
 3730              	.L351:
1106:Core/test/unity.c ****             break;
 3731              		.loc 1 1106 45 view .LVU980
 3732 00e2 0123     		movs	r3, #1
 3733              	.LVL452:
1106:Core/test/unity.c ****             break;
 3734              		.loc 1 1106 45 view .LVU981
 3735 00e4 DDE7     		b	.L344
 3736              	.LVL453:
 3737              	.L355:
1116:Core/test/unity.c ****             break;
 3738              		.loc 1 1116 46 view .LVU982
 3739 00e6 0023     		movs	r3, #0
 3740              	.LVL454:
1116:Core/test/unity.c ****             break;
 3741              		.loc 1 1116 46 view .LVU983
 3742 00e8 DBE7     		b	.L344
 3743              	.LVL455:
 3744              	.L358:
1128:Core/test/unity.c ****         UnityPrint(UnityStrExpected);
 3745              		.loc 1 1128 9 is_stmt 1 view .LVU984
 3746 00ea 7046     		mov	r0, lr
 3747 00ec FFF7FEFF 		bl	UnityTestResultsFailBegin
 3748              	.LVL456:
1129:Core/test/unity.c ****         if (!should_be_trait)
 3749              		.loc 1 1129 9 view .LVU985
 3750 00f0 1448     		ldr	r0, .L361+20
 3751 00f2 FFF7FEFF 		bl	UnityPrint
 3752              	.LVL457:
1130:Core/test/unity.c ****         {
 3753              		.loc 1 1130 9 view .LVU986
1130:Core/test/unity.c ****         {
 3754              		.loc 1 1130 12 is_stmt 0 view .LVU987
 3755 00f6 B5B1     		cbz	r5, .L360
 3756              	.L347:
1134:Core/test/unity.c ****         UnityPrint(UnityStrWas);
 3757              		.loc 1 1134 9 is_stmt 1 view .LVU988
 3758 00f8 04AB     		add	r3, sp, #16
 3759 00fa 03EB8606 		add	r6, r3, r6, lsl #2
 3760              	.LVL458:
1134:Core/test/unity.c ****         UnityPrint(UnityStrWas);
 3761              		.loc 1 1134 9 is_stmt 0 view .LVU989
 3762 00fe 56F8100C 		ldr	r0, [r6, #-16]
 3763 0102 FFF7FEFF 		bl	UnityPrint
 3764              	.LVL459:
ARM GAS  C:\Users\ASUS\AppData\Local\Temp\ccstHO0r.s 			page 101


1135:Core/test/unity.c **** #ifndef UNITY_EXCLUDE_FLOAT_PRINT
 3765              		.loc 1 1135 9 is_stmt 1 view .LVU990
 3766 0106 1048     		ldr	r0, .L361+24
 3767 0108 FFF7FEFF 		bl	UnityPrint
 3768              	.LVL460:
1137:Core/test/unity.c **** #else
 3769              		.loc 1 1137 9 view .LVU991
 3770 010c B0EE480A 		vmov.f32	s0, s16
 3771 0110 FFF7FEFF 		bl	UnityPrintFloat
 3772              	.LVL461:
1145:Core/test/unity.c ****         UNITY_FAIL_AND_BAIL;
 3773              		.loc 1 1145 9 view .LVU992
 3774 0114 2046     		mov	r0, r4
 3775 0116 FFF7FEFF 		bl	UnityAddMsgIfSpecified
 3776              	.LVL462:
1146:Core/test/unity.c ****     }
 3777              		.loc 1 1146 9 view .LVU993
1146:Core/test/unity.c ****     }
 3778              		.loc 1 1146 9 view .LVU994
 3779 011a 0648     		ldr	r0, .L361+4
 3780 011c 0121     		movs	r1, #1
 3781 011e 0162     		str	r1, [r0, #32]
1146:Core/test/unity.c ****     }
 3782              		.loc 1 1146 9 view .LVU995
1146:Core/test/unity.c ****     }
 3783              		.loc 1 1146 9 view .LVU996
 3784 0120 2830     		adds	r0, r0, #40
 3785 0122 FFF7FEFF 		bl	longjmp
 3786              	.LVL463:
 3787              	.L360:
1132:Core/test/unity.c ****         }
 3788              		.loc 1 1132 13 view .LVU997
 3789 0126 0948     		ldr	r0, .L361+28
 3790 0128 FFF7FEFF 		bl	UnityPrint
 3791              	.LVL464:
 3792 012c E4E7     		b	.L347
 3793              	.L362:
 3794 012e 00BF     		.align	2
 3795              	.L361:
 3796 0130 00000000 		.word	.LANCHOR17
 3797 0134 00000000 		.word	.LANCHOR0
 3798 0138 28000000 		.word	.LANCHOR0+40
 3799 013c FFFF7F7F 		.word	2139095039
 3800 0140 00000000 		.word	.LANCHOR18
 3801 0144 00000000 		.word	.LANCHOR7
 3802 0148 00000000 		.word	.LANCHOR9
 3803 014c 00000000 		.word	.LANCHOR19
 3804              		.cfi_endproc
 3805              	.LFE162:
 3807              		.section	.text.UnityAssertNumbersWithin,"ax",%progbits
 3808              		.align	1
 3809              		.global	UnityAssertNumbersWithin
 3810              		.syntax unified
 3811              		.thumb
 3812              		.thumb_func
 3813              		.fpu fpv4-sp-d16
 3815              	UnityAssertNumbersWithin:
ARM GAS  C:\Users\ASUS\AppData\Local\Temp\ccstHO0r.s 			page 102


 3816              	.LVL465:
 3817              	.LFB163:
1149:Core/test/unity.c **** 
1150:Core/test/unity.c **** #endif /* not UNITY_EXCLUDE_FLOAT */
1151:Core/test/unity.c **** 
1152:Core/test/unity.c **** /*-----------------------------------------------*/
1153:Core/test/unity.c **** #ifndef UNITY_EXCLUDE_DOUBLE
1154:Core/test/unity.c **** static int UnityDoublesWithin(UNITY_DOUBLE delta, UNITY_DOUBLE expected, UNITY_DOUBLE actual)
1155:Core/test/unity.c **** {
1156:Core/test/unity.c ****     UNITY_DOUBLE diff;
1157:Core/test/unity.c ****     UNITY_FLOAT_OR_DOUBLE_WITHIN(delta, expected, actual, diff);
1158:Core/test/unity.c **** }
1159:Core/test/unity.c **** 
1160:Core/test/unity.c **** /*-----------------------------------------------*/
1161:Core/test/unity.c **** void UnityAssertWithinDoubleArray(const UNITY_DOUBLE delta,
1162:Core/test/unity.c ****                                   UNITY_PTR_ATTRIBUTE const UNITY_DOUBLE* expected,
1163:Core/test/unity.c ****                                   UNITY_PTR_ATTRIBUTE const UNITY_DOUBLE* actual,
1164:Core/test/unity.c ****                                   const UNITY_UINT32 num_elements,
1165:Core/test/unity.c ****                                   const char* msg,
1166:Core/test/unity.c ****                                   const UNITY_LINE_TYPE lineNumber,
1167:Core/test/unity.c ****                                   const UNITY_FLAGS_T flags)
1168:Core/test/unity.c **** {
1169:Core/test/unity.c ****     UNITY_UINT32 elements = num_elements;
1170:Core/test/unity.c ****     UNITY_PTR_ATTRIBUTE const UNITY_DOUBLE* ptr_expected = expected;
1171:Core/test/unity.c ****     UNITY_PTR_ATTRIBUTE const UNITY_DOUBLE* ptr_actual = actual;
1172:Core/test/unity.c ****     UNITY_DOUBLE in_delta = delta;
1173:Core/test/unity.c ****     UNITY_DOUBLE current_element_delta = delta;
1174:Core/test/unity.c **** 
1175:Core/test/unity.c ****     RETURN_IF_FAIL_OR_IGNORE;
1176:Core/test/unity.c **** 
1177:Core/test/unity.c ****     if (elements == 0)
1178:Core/test/unity.c ****     {
1179:Core/test/unity.c **** #ifdef UNITY_COMPARE_PTRS_ON_ZERO_ARRAY
1180:Core/test/unity.c ****         UNITY_TEST_ASSERT_EQUAL_PTR(expected, actual, lineNumber, msg);
1181:Core/test/unity.c **** #else
1182:Core/test/unity.c ****         UnityPrintPointlessAndBail();
1183:Core/test/unity.c **** #endif
1184:Core/test/unity.c ****     }
1185:Core/test/unity.c **** 
1186:Core/test/unity.c ****     if (UNITY_IS_INF(in_delta))
1187:Core/test/unity.c ****     {
1188:Core/test/unity.c ****         return; /* Arrays will be force equal with infinite delta */
1189:Core/test/unity.c ****     }
1190:Core/test/unity.c **** 
1191:Core/test/unity.c ****     if (UNITY_IS_NAN(in_delta))
1192:Core/test/unity.c ****     {
1193:Core/test/unity.c ****         /* Delta must be correct number */
1194:Core/test/unity.c ****         UnityPrintPointlessAndBail();
1195:Core/test/unity.c ****     }
1196:Core/test/unity.c **** 
1197:Core/test/unity.c ****     if (expected == actual)
1198:Core/test/unity.c ****     {
1199:Core/test/unity.c ****         return; /* Both are NULL or same pointer */
1200:Core/test/unity.c ****     }
1201:Core/test/unity.c **** 
1202:Core/test/unity.c ****     if (UnityIsOneArrayNull((UNITY_INTERNAL_PTR)expected, (UNITY_INTERNAL_PTR)actual, lineNumber, m
1203:Core/test/unity.c ****     {
ARM GAS  C:\Users\ASUS\AppData\Local\Temp\ccstHO0r.s 			page 103


1204:Core/test/unity.c ****         UNITY_FAIL_AND_BAIL;
1205:Core/test/unity.c ****     }
1206:Core/test/unity.c **** 
1207:Core/test/unity.c ****     /* fix delta sign if need */
1208:Core/test/unity.c ****     if (in_delta < 0)
1209:Core/test/unity.c ****     {
1210:Core/test/unity.c ****         in_delta = -in_delta;
1211:Core/test/unity.c ****     }
1212:Core/test/unity.c **** 
1213:Core/test/unity.c ****     while (elements--)
1214:Core/test/unity.c ****     {
1215:Core/test/unity.c ****         current_element_delta = *ptr_expected * UNITY_DOUBLE_PRECISION;
1216:Core/test/unity.c **** 
1217:Core/test/unity.c ****         if (current_element_delta < 0)
1218:Core/test/unity.c ****         {
1219:Core/test/unity.c ****             /* fix delta sign for correct calculations */
1220:Core/test/unity.c ****             current_element_delta = -current_element_delta;
1221:Core/test/unity.c ****         }
1222:Core/test/unity.c **** 
1223:Core/test/unity.c ****         if (!UnityDoublesWithin(in_delta + current_element_delta, *ptr_expected, *ptr_actual))
1224:Core/test/unity.c ****         {
1225:Core/test/unity.c ****             UnityTestResultsFailBegin(lineNumber);
1226:Core/test/unity.c ****             UnityPrint(UnityStrElement);
1227:Core/test/unity.c ****             UnityPrintNumberUnsigned(num_elements - elements - 1);
1228:Core/test/unity.c ****             UNITY_PRINT_EXPECTED_AND_ACTUAL_FLOAT(*ptr_expected, *ptr_actual);
1229:Core/test/unity.c ****             UnityAddMsgIfSpecified(msg);
1230:Core/test/unity.c ****             UNITY_FAIL_AND_BAIL;
1231:Core/test/unity.c ****         }
1232:Core/test/unity.c ****         if (flags == UNITY_ARRAY_TO_ARRAY)
1233:Core/test/unity.c ****         {
1234:Core/test/unity.c ****             ptr_expected++;
1235:Core/test/unity.c ****         }
1236:Core/test/unity.c ****         ptr_actual++;
1237:Core/test/unity.c ****     }
1238:Core/test/unity.c **** }
1239:Core/test/unity.c **** 
1240:Core/test/unity.c **** /*-----------------------------------------------*/
1241:Core/test/unity.c **** void UnityAssertDoublesWithin(const UNITY_DOUBLE delta,
1242:Core/test/unity.c ****                               const UNITY_DOUBLE expected,
1243:Core/test/unity.c ****                               const UNITY_DOUBLE actual,
1244:Core/test/unity.c ****                               const char* msg,
1245:Core/test/unity.c ****                               const UNITY_LINE_TYPE lineNumber)
1246:Core/test/unity.c **** {
1247:Core/test/unity.c ****     RETURN_IF_FAIL_OR_IGNORE;
1248:Core/test/unity.c **** 
1249:Core/test/unity.c ****     if (!UnityDoublesWithin(delta, expected, actual))
1250:Core/test/unity.c ****     {
1251:Core/test/unity.c ****         UnityTestResultsFailBegin(lineNumber);
1252:Core/test/unity.c ****         UNITY_PRINT_EXPECTED_AND_ACTUAL_FLOAT(expected, actual);
1253:Core/test/unity.c ****         UnityAddMsgIfSpecified(msg);
1254:Core/test/unity.c ****         UNITY_FAIL_AND_BAIL;
1255:Core/test/unity.c ****     }
1256:Core/test/unity.c **** }
1257:Core/test/unity.c **** 
1258:Core/test/unity.c **** /*-----------------------------------------------*/
1259:Core/test/unity.c **** void UnityAssertDoublesNotWithin(const UNITY_DOUBLE delta,
1260:Core/test/unity.c ****                                  const UNITY_DOUBLE expected,
ARM GAS  C:\Users\ASUS\AppData\Local\Temp\ccstHO0r.s 			page 104


1261:Core/test/unity.c ****                                  const UNITY_DOUBLE actual,
1262:Core/test/unity.c ****                                  const char* msg,
1263:Core/test/unity.c ****                                  const UNITY_LINE_TYPE lineNumber)
1264:Core/test/unity.c **** {
1265:Core/test/unity.c ****     RETURN_IF_FAIL_OR_IGNORE;
1266:Core/test/unity.c **** 
1267:Core/test/unity.c ****     if (UnityDoublesWithin(delta, expected, actual))
1268:Core/test/unity.c ****     {
1269:Core/test/unity.c ****         UnityTestResultsFailBegin(lineNumber);
1270:Core/test/unity.c ****         UnityPrint(UnityStrExpected);
1271:Core/test/unity.c ****         UnityPrintFloat((UNITY_DOUBLE)expected);
1272:Core/test/unity.c ****         UnityPrint(UnityStrNotEqual);
1273:Core/test/unity.c ****         UnityPrintFloat((UNITY_DOUBLE)actual);
1274:Core/test/unity.c ****         UnityAddMsgIfSpecified(msg);
1275:Core/test/unity.c ****         UNITY_FAIL_AND_BAIL;
1276:Core/test/unity.c ****     }
1277:Core/test/unity.c **** }
1278:Core/test/unity.c **** 
1279:Core/test/unity.c **** /*-----------------------------------------------*/
1280:Core/test/unity.c **** void UnityAssertGreaterOrLessDouble(const UNITY_DOUBLE threshold,
1281:Core/test/unity.c ****                                     const UNITY_DOUBLE actual,
1282:Core/test/unity.c ****                                     const UNITY_COMPARISON_T compare,
1283:Core/test/unity.c ****                                     const char* msg,
1284:Core/test/unity.c ****                                     const UNITY_LINE_TYPE lineNumber)
1285:Core/test/unity.c **** {
1286:Core/test/unity.c ****     int failed;
1287:Core/test/unity.c **** 
1288:Core/test/unity.c ****     RETURN_IF_FAIL_OR_IGNORE;
1289:Core/test/unity.c **** 
1290:Core/test/unity.c ****     failed = 0;
1291:Core/test/unity.c **** 
1292:Core/test/unity.c ****     /* Checking for "not success" rather than failure to get the right result for NaN */
1293:Core/test/unity.c ****     if (!(actual < threshold) && (compare & UNITY_SMALLER_THAN)) { failed = 1; }
1294:Core/test/unity.c ****     if (!(actual > threshold) && (compare & UNITY_GREATER_THAN)) { failed = 1; }
1295:Core/test/unity.c **** 
1296:Core/test/unity.c ****     if ((compare & UNITY_EQUAL_TO) && UnityDoublesWithin(threshold * UNITY_DOUBLE_PRECISION, thresh
1297:Core/test/unity.c **** 
1298:Core/test/unity.c ****     if (failed)
1299:Core/test/unity.c ****     {
1300:Core/test/unity.c ****         UnityTestResultsFailBegin(lineNumber);
1301:Core/test/unity.c ****         UnityPrint(UnityStrExpected);
1302:Core/test/unity.c ****         UnityPrintFloat(actual);
1303:Core/test/unity.c ****         if (compare & UNITY_GREATER_THAN) { UnityPrint(UnityStrGt); }
1304:Core/test/unity.c ****         if (compare & UNITY_SMALLER_THAN) { UnityPrint(UnityStrLt); }
1305:Core/test/unity.c ****         if (compare & UNITY_EQUAL_TO)     { UnityPrint(UnityStrOrEqual);  }
1306:Core/test/unity.c ****         UnityPrintFloat(threshold);
1307:Core/test/unity.c ****         UnityAddMsgIfSpecified(msg);
1308:Core/test/unity.c ****         UNITY_FAIL_AND_BAIL;
1309:Core/test/unity.c ****     }
1310:Core/test/unity.c **** }
1311:Core/test/unity.c **** 
1312:Core/test/unity.c **** /*-----------------------------------------------*/
1313:Core/test/unity.c **** void UnityAssertDoubleSpecial(const UNITY_DOUBLE actual,
1314:Core/test/unity.c ****                               const char* msg,
1315:Core/test/unity.c ****                               const UNITY_LINE_TYPE lineNumber,
1316:Core/test/unity.c ****                               const UNITY_FLOAT_TRAIT_T style)
1317:Core/test/unity.c **** {
ARM GAS  C:\Users\ASUS\AppData\Local\Temp\ccstHO0r.s 			page 105


1318:Core/test/unity.c ****     const char* trait_names[] = {UnityStrInf, UnityStrNegInf, UnityStrNaN, UnityStrDet};
1319:Core/test/unity.c ****     UNITY_INT should_be_trait = ((UNITY_INT)style & 1);
1320:Core/test/unity.c ****     UNITY_INT is_trait        = !should_be_trait;
1321:Core/test/unity.c ****     UNITY_INT trait_index     = (UNITY_INT)(style >> 1);
1322:Core/test/unity.c **** 
1323:Core/test/unity.c ****     RETURN_IF_FAIL_OR_IGNORE;
1324:Core/test/unity.c **** 
1325:Core/test/unity.c ****     switch (style)
1326:Core/test/unity.c ****     {
1327:Core/test/unity.c ****         case UNITY_FLOAT_IS_INF:
1328:Core/test/unity.c ****         case UNITY_FLOAT_IS_NOT_INF:
1329:Core/test/unity.c ****             is_trait = UNITY_IS_INF(actual) && (actual > 0);
1330:Core/test/unity.c ****             break;
1331:Core/test/unity.c ****         case UNITY_FLOAT_IS_NEG_INF:
1332:Core/test/unity.c ****         case UNITY_FLOAT_IS_NOT_NEG_INF:
1333:Core/test/unity.c ****             is_trait = UNITY_IS_INF(actual) && (actual < 0);
1334:Core/test/unity.c ****             break;
1335:Core/test/unity.c **** 
1336:Core/test/unity.c ****         case UNITY_FLOAT_IS_NAN:
1337:Core/test/unity.c ****         case UNITY_FLOAT_IS_NOT_NAN:
1338:Core/test/unity.c ****             is_trait = UNITY_IS_NAN(actual) ? 1 : 0;
1339:Core/test/unity.c ****             break;
1340:Core/test/unity.c **** 
1341:Core/test/unity.c ****         case UNITY_FLOAT_IS_DET: /* A determinate number is non infinite and not NaN. */
1342:Core/test/unity.c ****         case UNITY_FLOAT_IS_NOT_DET:
1343:Core/test/unity.c ****             is_trait = !UNITY_IS_INF(actual) && !UNITY_IS_NAN(actual);
1344:Core/test/unity.c ****             break;
1345:Core/test/unity.c **** 
1346:Core/test/unity.c ****         case UNITY_FLOAT_INVALID_TRAIT:  /* Supress warning */
1347:Core/test/unity.c ****         default: /* including UNITY_FLOAT_INVALID_TRAIT */
1348:Core/test/unity.c ****             trait_index = 0;
1349:Core/test/unity.c ****             trait_names[0] = UnityStrInvalidFloatTrait;
1350:Core/test/unity.c ****             break;
1351:Core/test/unity.c ****     }
1352:Core/test/unity.c **** 
1353:Core/test/unity.c ****     if (is_trait != should_be_trait)
1354:Core/test/unity.c ****     {
1355:Core/test/unity.c ****         UnityTestResultsFailBegin(lineNumber);
1356:Core/test/unity.c ****         UnityPrint(UnityStrExpected);
1357:Core/test/unity.c ****         if (!should_be_trait)
1358:Core/test/unity.c ****         {
1359:Core/test/unity.c ****             UnityPrint(UnityStrNot);
1360:Core/test/unity.c ****         }
1361:Core/test/unity.c ****         UnityPrint(trait_names[trait_index]);
1362:Core/test/unity.c ****         UnityPrint(UnityStrWas);
1363:Core/test/unity.c **** #ifndef UNITY_EXCLUDE_FLOAT_PRINT
1364:Core/test/unity.c ****         UnityPrintFloat(actual);
1365:Core/test/unity.c **** #else
1366:Core/test/unity.c ****         if (should_be_trait)
1367:Core/test/unity.c ****         {
1368:Core/test/unity.c ****             UnityPrint(UnityStrNot);
1369:Core/test/unity.c ****         }
1370:Core/test/unity.c ****         UnityPrint(trait_names[trait_index]);
1371:Core/test/unity.c **** #endif
1372:Core/test/unity.c ****         UnityAddMsgIfSpecified(msg);
1373:Core/test/unity.c ****         UNITY_FAIL_AND_BAIL;
1374:Core/test/unity.c ****     }
ARM GAS  C:\Users\ASUS\AppData\Local\Temp\ccstHO0r.s 			page 106


1375:Core/test/unity.c **** }
1376:Core/test/unity.c **** 
1377:Core/test/unity.c **** #endif /* not UNITY_EXCLUDE_DOUBLE */
1378:Core/test/unity.c **** 
1379:Core/test/unity.c **** /*-----------------------------------------------*/
1380:Core/test/unity.c **** void UnityAssertNumbersWithin(const UNITY_UINT delta,
1381:Core/test/unity.c ****                               const UNITY_INT expected,
1382:Core/test/unity.c ****                               const UNITY_INT actual,
1383:Core/test/unity.c ****                               const char* msg,
1384:Core/test/unity.c ****                               const UNITY_LINE_TYPE lineNumber,
1385:Core/test/unity.c ****                               const UNITY_DISPLAY_STYLE_T style)
1386:Core/test/unity.c **** {
 3818              		.loc 1 1386 1 view -0
 3819              		.cfi_startproc
 3820              		@ args = 8, pretend = 0, frame = 0
 3821              		@ frame_needed = 0, uses_anonymous_args = 0
 3822              		.loc 1 1386 1 is_stmt 0 view .LVU999
 3823 0000 2DE9F041 		push	{r4, r5, r6, r7, r8, lr}
 3824              	.LCFI51:
 3825              		.cfi_def_cfa_offset 24
 3826              		.cfi_offset 4, -24
 3827              		.cfi_offset 5, -20
 3828              		.cfi_offset 6, -16
 3829              		.cfi_offset 7, -12
 3830              		.cfi_offset 8, -8
 3831              		.cfi_offset 14, -4
 3832 0004 1446     		mov	r4, r2
 3833 0006 9DF81C80 		ldrb	r8, [sp, #28]	@ zero_extendqisi2
1387:Core/test/unity.c ****     RETURN_IF_FAIL_OR_IGNORE;
 3834              		.loc 1 1387 5 is_stmt 1 view .LVU1000
 3835              		.loc 1 1387 5 view .LVU1001
 3836 000a 2C4A     		ldr	r2, .L373
 3837              	.LVL466:
 3838              		.loc 1 1387 5 is_stmt 0 view .LVU1002
 3839 000c 126A     		ldr	r2, [r2, #32]
 3840 000e B2B9     		cbnz	r2, .L364
 3841 0010 0646     		mov	r6, r0
 3842 0012 0D46     		mov	r5, r1
 3843 0014 1F46     		mov	r7, r3
 3844              		.loc 1 1387 5 discriminator 2 view .LVU1003
 3845 0016 294B     		ldr	r3, .L373
 3846              	.LVL467:
 3847              		.loc 1 1387 5 discriminator 2 view .LVU1004
 3848 0018 5B6A     		ldr	r3, [r3, #36]
 3849 001a 83B9     		cbnz	r3, .L364
 3850              		.loc 1 1387 5 is_stmt 1 discriminator 4 view .LVU1005
1388:Core/test/unity.c **** 
1389:Core/test/unity.c ****     if ((style & UNITY_DISPLAY_RANGE_INT) == UNITY_DISPLAY_RANGE_INT)
 3851              		.loc 1 1389 5 discriminator 4 view .LVU1006
 3852              		.loc 1 1389 8 is_stmt 0 discriminator 4 view .LVU1007
 3853 001c 18F0100F 		tst	r8, #16
 3854 0020 19D0     		beq	.L366
1390:Core/test/unity.c ****     {
1391:Core/test/unity.c ****         if (actual > expected)
 3855              		.loc 1 1391 9 is_stmt 1 view .LVU1008
 3856              		.loc 1 1391 12 is_stmt 0 view .LVU1009
 3857 0022 8C42     		cmp	r4, r1
ARM GAS  C:\Users\ASUS\AppData\Local\Temp\ccstHO0r.s 			page 107


 3858 0024 0FDD     		ble	.L367
1392:Core/test/unity.c ****         {
1393:Core/test/unity.c ****             Unity.CurrentTestFailed = (((UNITY_UINT)actual - (UNITY_UINT)expected) > delta);
 3859              		.loc 1 1393 13 is_stmt 1 view .LVU1010
 3860              		.loc 1 1393 60 is_stmt 0 view .LVU1011
 3861 0026 631A     		subs	r3, r4, r1
 3862              		.loc 1 1393 84 view .LVU1012
 3863 0028 8342     		cmp	r3, r0
 3864 002a 94BF     		ite	ls
 3865 002c 0023     		movls	r3, #0
 3866 002e 0123     		movhi	r3, #1
 3867              		.loc 1 1393 37 view .LVU1013
 3868 0030 224A     		ldr	r2, .L373
 3869 0032 1362     		str	r3, [r2, #32]
 3870              	.L368:
1394:Core/test/unity.c ****         }
1395:Core/test/unity.c ****         else
1396:Core/test/unity.c ****         {
1397:Core/test/unity.c ****             Unity.CurrentTestFailed = (((UNITY_UINT)expected - (UNITY_UINT)actual) > delta);
1398:Core/test/unity.c ****         }
1399:Core/test/unity.c ****     }
1400:Core/test/unity.c ****     else
1401:Core/test/unity.c ****     {
1402:Core/test/unity.c ****         if ((UNITY_UINT)actual > (UNITY_UINT)expected)
1403:Core/test/unity.c ****         {
1404:Core/test/unity.c ****             Unity.CurrentTestFailed = (((UNITY_UINT)actual - (UNITY_UINT)expected) > delta);
1405:Core/test/unity.c ****         }
1406:Core/test/unity.c ****         else
1407:Core/test/unity.c ****         {
1408:Core/test/unity.c ****             Unity.CurrentTestFailed = (((UNITY_UINT)expected - (UNITY_UINT)actual) > delta);
1409:Core/test/unity.c ****         }
1410:Core/test/unity.c ****     }
1411:Core/test/unity.c **** 
1412:Core/test/unity.c ****     if (Unity.CurrentTestFailed)
 3871              		.loc 1 1412 5 is_stmt 1 view .LVU1014
 3872              		.loc 1 1412 14 is_stmt 0 view .LVU1015
 3873 0034 214B     		ldr	r3, .L373
 3874 0036 1B6A     		ldr	r3, [r3, #32]
 3875              		.loc 1 1412 8 view .LVU1016
 3876 0038 FBB9     		cbnz	r3, .L372
1413:Core/test/unity.c ****     {
1414:Core/test/unity.c ****         UnityTestResultsFailBegin(lineNumber);
1415:Core/test/unity.c ****         UnityPrint(UnityStrDelta);
1416:Core/test/unity.c ****         UnityPrintNumberByStyle((UNITY_INT)delta, style);
1417:Core/test/unity.c ****         UnityPrint(UnityStrExpected);
1418:Core/test/unity.c ****         UnityPrintNumberByStyle(expected, style);
1419:Core/test/unity.c ****         UnityPrint(UnityStrWas);
1420:Core/test/unity.c ****         UnityPrintNumberByStyle(actual, style);
1421:Core/test/unity.c ****         UnityAddMsgIfSpecified(msg);
1422:Core/test/unity.c ****         UNITY_FAIL_AND_BAIL;
1423:Core/test/unity.c ****     }
1424:Core/test/unity.c **** }
 3877              		.loc 1 1424 1 view .LVU1017
 3878 003a BDE8F081 		pop	{r4, r5, r6, r7, r8, pc}
 3879              	.LVL468:
 3880              	.L364:
1387:Core/test/unity.c **** 
ARM GAS  C:\Users\ASUS\AppData\Local\Temp\ccstHO0r.s 			page 108


 3881              		.loc 1 1387 5 is_stmt 1 discriminator 3 view .LVU1018
 3882 003e 0121     		movs	r1, #1
 3883              	.LVL469:
1387:Core/test/unity.c **** 
 3884              		.loc 1 1387 5 is_stmt 0 discriminator 3 view .LVU1019
 3885 0040 1F48     		ldr	r0, .L373+4
 3886              	.LVL470:
1387:Core/test/unity.c **** 
 3887              		.loc 1 1387 5 discriminator 3 view .LVU1020
 3888 0042 FFF7FEFF 		bl	longjmp
 3889              	.LVL471:
 3890              	.L367:
1397:Core/test/unity.c ****         }
 3891              		.loc 1 1397 13 is_stmt 1 view .LVU1021
1397:Core/test/unity.c ****         }
 3892              		.loc 1 1397 62 is_stmt 0 view .LVU1022
 3893 0046 0B1B     		subs	r3, r1, r4
1397:Core/test/unity.c ****         }
 3894              		.loc 1 1397 84 view .LVU1023
 3895 0048 8342     		cmp	r3, r0
 3896 004a 94BF     		ite	ls
 3897 004c 0023     		movls	r3, #0
 3898 004e 0123     		movhi	r3, #1
1397:Core/test/unity.c ****         }
 3899              		.loc 1 1397 37 view .LVU1024
 3900 0050 1A4A     		ldr	r2, .L373
 3901 0052 1362     		str	r3, [r2, #32]
 3902 0054 EEE7     		b	.L368
 3903              	.L366:
1402:Core/test/unity.c ****         {
 3904              		.loc 1 1402 9 is_stmt 1 view .LVU1025
1402:Core/test/unity.c ****         {
 3905              		.loc 1 1402 12 is_stmt 0 view .LVU1026
 3906 0056 8C42     		cmp	r4, r1
 3907 0058 07D9     		bls	.L369
1404:Core/test/unity.c ****         }
 3908              		.loc 1 1404 13 is_stmt 1 view .LVU1027
1404:Core/test/unity.c ****         }
 3909              		.loc 1 1404 60 is_stmt 0 view .LVU1028
 3910 005a 631A     		subs	r3, r4, r1
1404:Core/test/unity.c ****         }
 3911              		.loc 1 1404 84 view .LVU1029
 3912 005c 8342     		cmp	r3, r0
 3913 005e 94BF     		ite	ls
 3914 0060 0023     		movls	r3, #0
 3915 0062 0123     		movhi	r3, #1
1404:Core/test/unity.c ****         }
 3916              		.loc 1 1404 37 view .LVU1030
 3917 0064 154A     		ldr	r2, .L373
 3918 0066 1362     		str	r3, [r2, #32]
 3919 0068 E4E7     		b	.L368
 3920              	.L369:
1408:Core/test/unity.c ****         }
 3921              		.loc 1 1408 13 is_stmt 1 view .LVU1031
1408:Core/test/unity.c ****         }
 3922              		.loc 1 1408 62 is_stmt 0 view .LVU1032
 3923 006a 0B1B     		subs	r3, r1, r4
ARM GAS  C:\Users\ASUS\AppData\Local\Temp\ccstHO0r.s 			page 109


1408:Core/test/unity.c ****         }
 3924              		.loc 1 1408 84 view .LVU1033
 3925 006c 8342     		cmp	r3, r0
 3926 006e 94BF     		ite	ls
 3927 0070 0023     		movls	r3, #0
 3928 0072 0123     		movhi	r3, #1
1408:Core/test/unity.c ****         }
 3929              		.loc 1 1408 37 view .LVU1034
 3930 0074 114A     		ldr	r2, .L373
 3931 0076 1362     		str	r3, [r2, #32]
 3932 0078 DCE7     		b	.L368
 3933              	.L372:
1414:Core/test/unity.c ****         UnityPrint(UnityStrDelta);
 3934              		.loc 1 1414 9 is_stmt 1 view .LVU1035
 3935 007a 0698     		ldr	r0, [sp, #24]
 3936              	.LVL472:
1414:Core/test/unity.c ****         UnityPrint(UnityStrDelta);
 3937              		.loc 1 1414 9 is_stmt 0 view .LVU1036
 3938 007c FFF7FEFF 		bl	UnityTestResultsFailBegin
 3939              	.LVL473:
1415:Core/test/unity.c ****         UnityPrintNumberByStyle((UNITY_INT)delta, style);
 3940              		.loc 1 1415 9 is_stmt 1 view .LVU1037
 3941 0080 1048     		ldr	r0, .L373+8
 3942 0082 FFF7FEFF 		bl	UnityPrint
 3943              	.LVL474:
1416:Core/test/unity.c ****         UnityPrint(UnityStrExpected);
 3944              		.loc 1 1416 9 view .LVU1038
 3945 0086 4146     		mov	r1, r8
 3946 0088 3046     		mov	r0, r6
 3947 008a FFF7FEFF 		bl	UnityPrintNumberByStyle
 3948              	.LVL475:
1417:Core/test/unity.c ****         UnityPrintNumberByStyle(expected, style);
 3949              		.loc 1 1417 9 view .LVU1039
 3950 008e 0E48     		ldr	r0, .L373+12
 3951 0090 FFF7FEFF 		bl	UnityPrint
 3952              	.LVL476:
1418:Core/test/unity.c ****         UnityPrint(UnityStrWas);
 3953              		.loc 1 1418 9 view .LVU1040
 3954 0094 4146     		mov	r1, r8
 3955 0096 2846     		mov	r0, r5
 3956 0098 FFF7FEFF 		bl	UnityPrintNumberByStyle
 3957              	.LVL477:
1419:Core/test/unity.c ****         UnityPrintNumberByStyle(actual, style);
 3958              		.loc 1 1419 9 view .LVU1041
 3959 009c 0B48     		ldr	r0, .L373+16
 3960 009e FFF7FEFF 		bl	UnityPrint
 3961              	.LVL478:
1420:Core/test/unity.c ****         UnityAddMsgIfSpecified(msg);
 3962              		.loc 1 1420 9 view .LVU1042
 3963 00a2 4146     		mov	r1, r8
 3964 00a4 2046     		mov	r0, r4
 3965 00a6 FFF7FEFF 		bl	UnityPrintNumberByStyle
 3966              	.LVL479:
1421:Core/test/unity.c ****         UNITY_FAIL_AND_BAIL;
 3967              		.loc 1 1421 9 view .LVU1043
 3968 00aa 3846     		mov	r0, r7
 3969 00ac FFF7FEFF 		bl	UnityAddMsgIfSpecified
ARM GAS  C:\Users\ASUS\AppData\Local\Temp\ccstHO0r.s 			page 110


 3970              	.LVL480:
1422:Core/test/unity.c ****     }
 3971              		.loc 1 1422 9 view .LVU1044
1422:Core/test/unity.c ****     }
 3972              		.loc 1 1422 9 view .LVU1045
 3973 00b0 0248     		ldr	r0, .L373
 3974 00b2 0121     		movs	r1, #1
 3975 00b4 0162     		str	r1, [r0, #32]
1422:Core/test/unity.c ****     }
 3976              		.loc 1 1422 9 view .LVU1046
1422:Core/test/unity.c ****     }
 3977              		.loc 1 1422 9 view .LVU1047
 3978 00b6 2830     		adds	r0, r0, #40
 3979 00b8 FFF7FEFF 		bl	longjmp
 3980              	.LVL481:
 3981              	.L374:
 3982              		.align	2
 3983              	.L373:
 3984 00bc 00000000 		.word	.LANCHOR0
 3985 00c0 28000000 		.word	.LANCHOR0+40
 3986 00c4 00000000 		.word	.LANCHOR20
 3987 00c8 00000000 		.word	.LANCHOR7
 3988 00cc 00000000 		.word	.LANCHOR9
 3989              		.cfi_endproc
 3990              	.LFE163:
 3992              		.section	.text.UnityAssertNumbersArrayWithin,"ax",%progbits
 3993              		.align	1
 3994              		.global	UnityAssertNumbersArrayWithin
 3995              		.syntax unified
 3996              		.thumb
 3997              		.thumb_func
 3998              		.fpu fpv4-sp-d16
 4000              	UnityAssertNumbersArrayWithin:
 4001              	.LVL482:
 4002              	.LFB164:
1425:Core/test/unity.c **** 
1426:Core/test/unity.c **** /*-----------------------------------------------*/
1427:Core/test/unity.c **** void UnityAssertNumbersArrayWithin(const UNITY_UINT delta,
1428:Core/test/unity.c ****                                    UNITY_INTERNAL_PTR expected,
1429:Core/test/unity.c ****                                    UNITY_INTERNAL_PTR actual,
1430:Core/test/unity.c ****                                    const UNITY_UINT32 num_elements,
1431:Core/test/unity.c ****                                    const char* msg,
1432:Core/test/unity.c ****                                    const UNITY_LINE_TYPE lineNumber,
1433:Core/test/unity.c ****                                    const UNITY_DISPLAY_STYLE_T style,
1434:Core/test/unity.c ****                                    const UNITY_FLAGS_T flags)
1435:Core/test/unity.c **** {
 4003              		.loc 1 1435 1 view -0
 4004              		.cfi_startproc
 4005              		@ args = 16, pretend = 0, frame = 8
 4006              		@ frame_needed = 0, uses_anonymous_args = 0
 4007              		.loc 1 1435 1 is_stmt 0 view .LVU1049
 4008 0000 2DE9F04F 		push	{r4, r5, r6, r7, r8, r9, r10, fp, lr}
 4009              	.LCFI52:
 4010              		.cfi_def_cfa_offset 36
 4011              		.cfi_offset 4, -36
 4012              		.cfi_offset 5, -32
 4013              		.cfi_offset 6, -28
ARM GAS  C:\Users\ASUS\AppData\Local\Temp\ccstHO0r.s 			page 111


 4014              		.cfi_offset 7, -24
 4015              		.cfi_offset 8, -20
 4016              		.cfi_offset 9, -16
 4017              		.cfi_offset 10, -12
 4018              		.cfi_offset 11, -8
 4019              		.cfi_offset 14, -4
 4020 0004 83B0     		sub	sp, sp, #12
 4021              	.LCFI53:
 4022              		.cfi_def_cfa_offset 48
 4023 0006 0090     		str	r0, [sp]
 4024 0008 0193     		str	r3, [sp, #4]
 4025 000a 9DF83890 		ldrb	r9, [sp, #56]	@ zero_extendqisi2
 4026 000e 9DF83CB0 		ldrb	fp, [sp, #60]	@ zero_extendqisi2
1436:Core/test/unity.c ****     UNITY_UINT32 elements = num_elements;
 4027              		.loc 1 1436 5 is_stmt 1 view .LVU1050
 4028              	.LVL483:
1437:Core/test/unity.c ****     unsigned int length   = style & 0xF;
 4029              		.loc 1 1437 5 view .LVU1051
1438:Core/test/unity.c ****     unsigned int increment = 0;
 4030              		.loc 1 1438 5 view .LVU1052
1439:Core/test/unity.c **** 
1440:Core/test/unity.c ****     RETURN_IF_FAIL_OR_IGNORE;
 4031              		.loc 1 1440 5 view .LVU1053
 4032              		.loc 1 1440 5 view .LVU1054
 4033 0012 694B     		ldr	r3, .L402
 4034              	.LVL484:
 4035              		.loc 1 1440 5 is_stmt 0 view .LVU1055
 4036 0014 1B6A     		ldr	r3, [r3, #32]
 4037 0016 A3B9     		cbnz	r3, .L376
 4038 0018 8A46     		mov	r10, r1
 4039 001a 1446     		mov	r4, r2
 4040 001c 09F00F06 		and	r6, r9, #15
 4041              	.LVL485:
 4042              		.loc 1 1440 5 discriminator 2 view .LVU1056
 4043 0020 654B     		ldr	r3, .L402
 4044 0022 5B6A     		ldr	r3, [r3, #36]
 4045 0024 6BB9     		cbnz	r3, .L376
 4046              		.loc 1 1440 5 is_stmt 1 discriminator 4 view .LVU1057
1441:Core/test/unity.c **** 
1442:Core/test/unity.c ****     if (num_elements == 0)
 4047              		.loc 1 1442 5 discriminator 4 view .LVU1058
 4048              		.loc 1 1442 8 is_stmt 0 discriminator 4 view .LVU1059
 4049 0026 019B     		ldr	r3, [sp, #4]
 4050 0028 7BB1     		cbz	r3, .L398
1443:Core/test/unity.c ****     {
1444:Core/test/unity.c **** #ifdef UNITY_COMPARE_PTRS_ON_ZERO_ARRAY
1445:Core/test/unity.c ****         UNITY_TEST_ASSERT_EQUAL_PTR(expected, actual, lineNumber, msg);
1446:Core/test/unity.c **** #else
1447:Core/test/unity.c ****         UnityPrintPointlessAndBail();
 4051              		.loc 1 1447 9 is_stmt 1 view .LVU1060
 4052              		.loc 1 1447 9 view .LVU1061
1448:Core/test/unity.c **** #endif
1449:Core/test/unity.c ****     }
1450:Core/test/unity.c **** 
1451:Core/test/unity.c ****     if (expected == actual)
 4053              		.loc 1 1451 5 view .LVU1062
 4054              		.loc 1 1451 8 is_stmt 0 view .LVU1063
ARM GAS  C:\Users\ASUS\AppData\Local\Temp\ccstHO0r.s 			page 112


 4055 002a 9142     		cmp	r1, r2
 4056 002c 00F0C080 		beq	.L375
1452:Core/test/unity.c ****     {
1453:Core/test/unity.c ****         return; /* Both are NULL or same pointer */
1454:Core/test/unity.c ****     }
1455:Core/test/unity.c **** 
1456:Core/test/unity.c ****     if (UnityIsOneArrayNull(expected, actual, lineNumber, msg))
 4057              		.loc 1 1456 5 is_stmt 1 view .LVU1064
 4058              		.loc 1 1456 9 is_stmt 0 view .LVU1065
 4059 0030 0C9B     		ldr	r3, [sp, #48]
 4060 0032 0D9A     		ldr	r2, [sp, #52]
 4061              	.LVL486:
 4062              		.loc 1 1456 9 view .LVU1066
 4063 0034 2146     		mov	r1, r4
 4064              	.LVL487:
 4065              		.loc 1 1456 9 view .LVU1067
 4066 0036 5046     		mov	r0, r10
 4067              	.LVL488:
 4068              		.loc 1 1456 9 view .LVU1068
 4069 0038 FFF7FEFF 		bl	UnityIsOneArrayNull
 4070              	.LVL489:
 4071              		.loc 1 1456 8 view .LVU1069
 4072 003c A0B9     		cbnz	r0, .L399
1436:Core/test/unity.c ****     unsigned int length   = style & 0xF;
 4073              		.loc 1 1436 18 view .LVU1070
 4074 003e 019D     		ldr	r5, [sp, #4]
 4075 0040 36E0     		b	.L380
 4076              	.LVL490:
 4077              	.L376:
1440:Core/test/unity.c **** 
 4078              		.loc 1 1440 5 is_stmt 1 discriminator 3 view .LVU1071
 4079 0042 0121     		movs	r1, #1
 4080              	.LVL491:
1440:Core/test/unity.c **** 
 4081              		.loc 1 1440 5 is_stmt 0 discriminator 3 view .LVU1072
 4082 0044 5D48     		ldr	r0, .L402+4
 4083              	.LVL492:
1440:Core/test/unity.c **** 
 4084              		.loc 1 1440 5 discriminator 3 view .LVU1073
 4085 0046 FFF7FEFF 		bl	longjmp
 4086              	.LVL493:
 4087              	.L398:
1447:Core/test/unity.c **** #endif
 4088              		.loc 1 1447 9 is_stmt 1 view .LVU1074
1447:Core/test/unity.c **** #endif
 4089              		.loc 1 1447 9 view .LVU1075
 4090 004a 0D98     		ldr	r0, [sp, #52]
 4091              	.LVL494:
1447:Core/test/unity.c **** #endif
 4092              		.loc 1 1447 9 is_stmt 0 view .LVU1076
 4093 004c FFF7FEFF 		bl	UnityTestResultsFailBegin
 4094              	.LVL495:
1447:Core/test/unity.c **** #endif
 4095              		.loc 1 1447 9 is_stmt 1 view .LVU1077
 4096 0050 5B48     		ldr	r0, .L402+8
 4097 0052 FFF7FEFF 		bl	UnityPrint
 4098              	.LVL496:
ARM GAS  C:\Users\ASUS\AppData\Local\Temp\ccstHO0r.s 			page 113


1447:Core/test/unity.c **** #endif
 4099              		.loc 1 1447 9 view .LVU1078
 4100 0056 0C98     		ldr	r0, [sp, #48]
 4101 0058 FFF7FEFF 		bl	UnityAddMsgIfSpecified
 4102              	.LVL497:
1447:Core/test/unity.c **** #endif
 4103              		.loc 1 1447 9 view .LVU1079
1447:Core/test/unity.c **** #endif
 4104              		.loc 1 1447 9 view .LVU1080
 4105 005c 5648     		ldr	r0, .L402
 4106 005e 0121     		movs	r1, #1
 4107 0060 0162     		str	r1, [r0, #32]
1447:Core/test/unity.c **** #endif
 4108              		.loc 1 1447 9 view .LVU1081
1447:Core/test/unity.c **** #endif
 4109              		.loc 1 1447 9 view .LVU1082
 4110 0062 2830     		adds	r0, r0, #40
 4111 0064 FFF7FEFF 		bl	longjmp
 4112              	.LVL498:
 4113              	.L399:
1457:Core/test/unity.c ****     {
1458:Core/test/unity.c ****         UNITY_FAIL_AND_BAIL;
 4114              		.loc 1 1458 9 view .LVU1083
 4115              		.loc 1 1458 9 view .LVU1084
 4116 0068 5348     		ldr	r0, .L402
 4117 006a 0121     		movs	r1, #1
 4118 006c 0162     		str	r1, [r0, #32]
 4119              		.loc 1 1458 9 view .LVU1085
 4120              		.loc 1 1458 9 view .LVU1086
 4121 006e 2830     		adds	r0, r0, #40
 4122 0070 FFF7FEFF 		bl	longjmp
 4123              	.LVL499:
 4124              	.L392:
 4125              	.LBB14:
1459:Core/test/unity.c ****     }
1460:Core/test/unity.c **** 
1461:Core/test/unity.c ****     while ((elements > 0) && (elements--))
1462:Core/test/unity.c ****     {
1463:Core/test/unity.c ****         UNITY_INT expect_val;
1464:Core/test/unity.c ****         UNITY_INT actual_val;
1465:Core/test/unity.c **** 
1466:Core/test/unity.c ****         switch (length)
1467:Core/test/unity.c ****         {
1468:Core/test/unity.c ****             case 1:
1469:Core/test/unity.c ****                 /* fixing problems with signed overflow on unsigned numbers */
1470:Core/test/unity.c ****                 if ((style & UNITY_DISPLAY_RANGE_INT) == UNITY_DISPLAY_RANGE_INT)
 4126              		.loc 1 1470 17 view .LVU1087
 4127              		.loc 1 1470 20 is_stmt 0 view .LVU1088
 4128 0074 19F0100F 		tst	r9, #16
 4129 0078 2AD0     		beq	.L381
1471:Core/test/unity.c ****                 {
1472:Core/test/unity.c ****                     expect_val = *(UNITY_PTR_ATTRIBUTE const UNITY_INT8*)expected;
 4130              		.loc 1 1472 21 is_stmt 1 view .LVU1089
 4131              		.loc 1 1472 34 is_stmt 0 view .LVU1090
 4132 007a 9AF90080 		ldrsb	r8, [r10]
 4133              	.LVL500:
1473:Core/test/unity.c ****                     actual_val = *(UNITY_PTR_ATTRIBUTE const UNITY_INT8*)actual;
ARM GAS  C:\Users\ASUS\AppData\Local\Temp\ccstHO0r.s 			page 114


 4134              		.loc 1 1473 21 is_stmt 1 view .LVU1091
 4135              		.loc 1 1473 34 is_stmt 0 view .LVU1092
 4136 007e 94F90070 		ldrsb	r7, [r4]
 4137              	.LVL501:
1474:Core/test/unity.c ****                     increment  = sizeof(UNITY_INT8);
 4138              		.loc 1 1474 21 is_stmt 1 view .LVU1093
 4139              		.loc 1 1474 32 is_stmt 0 view .LVU1094
 4140 0082 3346     		mov	r3, r6
 4141              	.LVL502:
 4142              	.L382:
1475:Core/test/unity.c ****                 }
1476:Core/test/unity.c ****                 else
1477:Core/test/unity.c ****                 {
1478:Core/test/unity.c ****                     expect_val = (UNITY_INT)*(UNITY_PTR_ATTRIBUTE const UNITY_UINT8*)expected;
1479:Core/test/unity.c ****                     actual_val = (UNITY_INT)*(UNITY_PTR_ATTRIBUTE const UNITY_UINT8*)actual;
1480:Core/test/unity.c ****                     increment  = sizeof(UNITY_UINT8);
1481:Core/test/unity.c ****                 }
1482:Core/test/unity.c ****                 break;
1483:Core/test/unity.c **** 
1484:Core/test/unity.c ****             case 2:
1485:Core/test/unity.c ****                 /* fixing problems with signed overflow on unsigned numbers */
1486:Core/test/unity.c ****                 if ((style & UNITY_DISPLAY_RANGE_INT) == UNITY_DISPLAY_RANGE_INT)
1487:Core/test/unity.c ****                 {
1488:Core/test/unity.c ****                     expect_val = *(UNITY_PTR_ATTRIBUTE const UNITY_INT16*)expected;
1489:Core/test/unity.c ****                     actual_val = *(UNITY_PTR_ATTRIBUTE const UNITY_INT16*)actual;
1490:Core/test/unity.c ****                     increment  = sizeof(UNITY_INT16);
1491:Core/test/unity.c ****                 }
1492:Core/test/unity.c ****                 else
1493:Core/test/unity.c ****                 {
1494:Core/test/unity.c ****                     expect_val = (UNITY_INT)*(UNITY_PTR_ATTRIBUTE const UNITY_UINT16*)expected;
1495:Core/test/unity.c ****                     actual_val = (UNITY_INT)*(UNITY_PTR_ATTRIBUTE const UNITY_UINT16*)actual;
1496:Core/test/unity.c ****                     increment  = sizeof(UNITY_UINT16);
1497:Core/test/unity.c ****                 }
1498:Core/test/unity.c ****                 break;
1499:Core/test/unity.c **** 
1500:Core/test/unity.c **** #ifdef UNITY_SUPPORT_64
1501:Core/test/unity.c ****             case 8:
1502:Core/test/unity.c ****                 /* fixing problems with signed overflow on unsigned numbers */
1503:Core/test/unity.c ****                 if ((style & UNITY_DISPLAY_RANGE_INT) == UNITY_DISPLAY_RANGE_INT)
1504:Core/test/unity.c ****                 {
1505:Core/test/unity.c ****                     expect_val = *(UNITY_PTR_ATTRIBUTE const UNITY_INT64*)expected;
1506:Core/test/unity.c ****                     actual_val = *(UNITY_PTR_ATTRIBUTE const UNITY_INT64*)actual;
1507:Core/test/unity.c ****                     increment  = sizeof(UNITY_INT64);
1508:Core/test/unity.c ****                 }
1509:Core/test/unity.c ****                 else
1510:Core/test/unity.c ****                 {
1511:Core/test/unity.c ****                     expect_val = (UNITY_INT)*(UNITY_PTR_ATTRIBUTE const UNITY_UINT64*)expected;
1512:Core/test/unity.c ****                     actual_val = (UNITY_INT)*(UNITY_PTR_ATTRIBUTE const UNITY_UINT64*)actual;
1513:Core/test/unity.c ****                     increment  = sizeof(UNITY_UINT64);
1514:Core/test/unity.c ****                 }
1515:Core/test/unity.c ****                 break;
1516:Core/test/unity.c **** #endif
1517:Core/test/unity.c **** 
1518:Core/test/unity.c ****             default: /* default is length 4 bytes */
1519:Core/test/unity.c ****             case 4:
1520:Core/test/unity.c ****                 /* fixing problems with signed overflow on unsigned numbers */
1521:Core/test/unity.c ****                 if ((style & UNITY_DISPLAY_RANGE_INT) == UNITY_DISPLAY_RANGE_INT)
ARM GAS  C:\Users\ASUS\AppData\Local\Temp\ccstHO0r.s 			page 115


1522:Core/test/unity.c ****                 {
1523:Core/test/unity.c ****                     expect_val = *(UNITY_PTR_ATTRIBUTE const UNITY_INT32*)expected;
1524:Core/test/unity.c ****                     actual_val = *(UNITY_PTR_ATTRIBUTE const UNITY_INT32*)actual;
1525:Core/test/unity.c ****                     increment  = sizeof(UNITY_INT32);
1526:Core/test/unity.c ****                 }
1527:Core/test/unity.c ****                 else
1528:Core/test/unity.c ****                 {
1529:Core/test/unity.c ****                     expect_val = (UNITY_INT)*(UNITY_PTR_ATTRIBUTE const UNITY_UINT32*)expected;
1530:Core/test/unity.c ****                     actual_val = (UNITY_INT)*(UNITY_PTR_ATTRIBUTE const UNITY_UINT32*)actual;
1531:Core/test/unity.c ****                     increment  = sizeof(UNITY_UINT32);
1532:Core/test/unity.c ****                 }
1533:Core/test/unity.c ****                 length = 4;
1534:Core/test/unity.c ****                 break;
1535:Core/test/unity.c ****         }
1536:Core/test/unity.c **** 
1537:Core/test/unity.c ****         if ((style & UNITY_DISPLAY_RANGE_INT) == UNITY_DISPLAY_RANGE_INT)
 4143              		.loc 1 1537 9 is_stmt 1 view .LVU1095
 4144              		.loc 1 1537 12 is_stmt 0 view .LVU1096
 4145 0084 19F0100F 		tst	r9, #16
 4146 0088 45D0     		beq	.L385
1538:Core/test/unity.c ****         {
1539:Core/test/unity.c ****             if (actual_val > expect_val)
 4147              		.loc 1 1539 13 is_stmt 1 view .LVU1097
 4148              		.loc 1 1539 16 is_stmt 0 view .LVU1098
 4149 008a B845     		cmp	r8, r7
 4150 008c 39DA     		bge	.L386
1540:Core/test/unity.c ****             {
1541:Core/test/unity.c ****                 Unity.CurrentTestFailed = (((UNITY_UINT)actual_val - (UNITY_UINT)expect_val) > delt
 4151              		.loc 1 1541 17 is_stmt 1 view .LVU1099
 4152              		.loc 1 1541 68 is_stmt 0 view .LVU1100
 4153 008e A7EB0802 		sub	r2, r7, r8
 4154              		.loc 1 1541 94 view .LVU1101
 4155 0092 0099     		ldr	r1, [sp]
 4156 0094 8A42     		cmp	r2, r1
 4157 0096 94BF     		ite	ls
 4158 0098 0022     		movls	r2, #0
 4159 009a 0122     		movhi	r2, #1
 4160              		.loc 1 1541 41 view .LVU1102
 4161 009c 4649     		ldr	r1, .L402
 4162 009e 0A62     		str	r2, [r1, #32]
 4163              	.L387:
1542:Core/test/unity.c ****             }
1543:Core/test/unity.c ****             else
1544:Core/test/unity.c ****             {
1545:Core/test/unity.c ****                 Unity.CurrentTestFailed = (((UNITY_UINT)expect_val - (UNITY_UINT)actual_val) > delt
1546:Core/test/unity.c ****             }
1547:Core/test/unity.c ****         }
1548:Core/test/unity.c ****         else
1549:Core/test/unity.c ****         {
1550:Core/test/unity.c ****             if ((UNITY_UINT)actual_val > (UNITY_UINT)expect_val)
1551:Core/test/unity.c ****             {
1552:Core/test/unity.c ****                 Unity.CurrentTestFailed = (((UNITY_UINT)actual_val - (UNITY_UINT)expect_val) > delt
1553:Core/test/unity.c ****             }
1554:Core/test/unity.c ****             else
1555:Core/test/unity.c ****             {
1556:Core/test/unity.c ****                 Unity.CurrentTestFailed = (((UNITY_UINT)expect_val - (UNITY_UINT)actual_val) > delt
1557:Core/test/unity.c ****             }
ARM GAS  C:\Users\ASUS\AppData\Local\Temp\ccstHO0r.s 			page 116


1558:Core/test/unity.c ****         }
1559:Core/test/unity.c **** 
1560:Core/test/unity.c ****         if (Unity.CurrentTestFailed)
 4164              		.loc 1 1560 9 is_stmt 1 view .LVU1103
 4165              		.loc 1 1560 18 is_stmt 0 view .LVU1104
 4166 00a0 454A     		ldr	r2, .L402
 4167 00a2 126A     		ldr	r2, [r2, #32]
 4168              		.loc 1 1560 12 view .LVU1105
 4169 00a4 002A     		cmp	r2, #0
 4170 00a6 4CD1     		bne	.L400
1561:Core/test/unity.c ****         {
1562:Core/test/unity.c ****             if ((style & UNITY_DISPLAY_RANGE_UINT) && (length < (UNITY_INT_WIDTH / 8)))
1563:Core/test/unity.c ****             {   /* For UINT, remove sign extension (padding 1's) from signed type casts above */
1564:Core/test/unity.c ****                 UNITY_INT mask = 1;
1565:Core/test/unity.c ****                 mask = (mask << 8 * length) - 1;
1566:Core/test/unity.c ****                 expect_val &= mask;
1567:Core/test/unity.c ****                 actual_val &= mask;
1568:Core/test/unity.c ****             }
1569:Core/test/unity.c ****             UnityTestResultsFailBegin(lineNumber);
1570:Core/test/unity.c ****             UnityPrint(UnityStrDelta);
1571:Core/test/unity.c ****             UnityPrintNumberByStyle((UNITY_INT)delta, style);
1572:Core/test/unity.c ****             UnityPrint(UnityStrElement);
1573:Core/test/unity.c ****             UnityPrintNumberUnsigned(num_elements - elements - 1);
1574:Core/test/unity.c ****             UnityPrint(UnityStrExpected);
1575:Core/test/unity.c ****             UnityPrintNumberByStyle(expect_val, style);
1576:Core/test/unity.c ****             UnityPrint(UnityStrWas);
1577:Core/test/unity.c ****             UnityPrintNumberByStyle(actual_val, style);
1578:Core/test/unity.c ****             UnityAddMsgIfSpecified(msg);
1579:Core/test/unity.c ****             UNITY_FAIL_AND_BAIL;
 4171              		.loc 1 1579 13 is_stmt 1 view .LVU1106
1580:Core/test/unity.c ****         }
1581:Core/test/unity.c ****         /* Walk through array by incrementing the pointers */
1582:Core/test/unity.c ****         if (flags == UNITY_ARRAY_TO_ARRAY)
 4172              		.loc 1 1582 9 view .LVU1107
 4173              		.loc 1 1582 12 is_stmt 0 view .LVU1108
 4174 00a8 BBF1010F 		cmp	fp, #1
 4175 00ac 7ED0     		beq	.L401
 4176              	.L391:
1583:Core/test/unity.c ****         {
1584:Core/test/unity.c ****             expected = (UNITY_INTERNAL_PTR)((const char*)expected + increment);
1585:Core/test/unity.c ****         }
1586:Core/test/unity.c ****         actual = (UNITY_INTERNAL_PTR)((const char*)actual + increment);
 4177              		.loc 1 1586 9 is_stmt 1 view .LVU1109
 4178              		.loc 1 1586 16 is_stmt 0 view .LVU1110
 4179 00ae 1C44     		add	r4, r4, r3
 4180              	.LVL503:
 4181              	.L380:
 4182              		.loc 1 1586 16 view .LVU1111
 4183              	.LBE14:
1461:Core/test/unity.c ****     {
 4184              		.loc 1 1461 11 is_stmt 1 view .LVU1112
 4185 00b0 002D     		cmp	r5, #0
 4186 00b2 7DD0     		beq	.L375
1461:Core/test/unity.c ****     {
 4187              		.loc 1 1461 39 is_stmt 0 discriminator 1 view .LVU1113
 4188 00b4 013D     		subs	r5, r5, #1
 4189              	.LVL504:
ARM GAS  C:\Users\ASUS\AppData\Local\Temp\ccstHO0r.s 			page 117


 4190              	.LBB16:
1463:Core/test/unity.c ****         UNITY_INT actual_val;
 4191              		.loc 1 1463 9 is_stmt 1 discriminator 1 view .LVU1114
1464:Core/test/unity.c **** 
 4192              		.loc 1 1464 9 discriminator 1 view .LVU1115
1466:Core/test/unity.c ****         {
 4193              		.loc 1 1466 9 discriminator 1 view .LVU1116
 4194 00b6 012E     		cmp	r6, #1
 4195 00b8 DCD0     		beq	.L392
1466:Core/test/unity.c ****         {
 4196              		.loc 1 1466 9 is_stmt 0 view .LVU1117
 4197 00ba 022E     		cmp	r6, #2
 4198 00bc 0DD0     		beq	.L393
1521:Core/test/unity.c ****                 {
 4199              		.loc 1 1521 17 is_stmt 1 view .LVU1118
1521:Core/test/unity.c ****                 {
 4200              		.loc 1 1521 20 is_stmt 0 view .LVU1119
 4201 00be 19F0100F 		tst	r9, #16
 4202 00c2 18D0     		beq	.L384
1523:Core/test/unity.c ****                     actual_val = *(UNITY_PTR_ATTRIBUTE const UNITY_INT32*)actual;
 4203              		.loc 1 1523 21 is_stmt 1 view .LVU1120
1523:Core/test/unity.c ****                     actual_val = *(UNITY_PTR_ATTRIBUTE const UNITY_INT32*)actual;
 4204              		.loc 1 1523 32 is_stmt 0 view .LVU1121
 4205 00c4 DAF80080 		ldr	r8, [r10]
 4206              	.LVL505:
1524:Core/test/unity.c ****                     increment  = sizeof(UNITY_INT32);
 4207              		.loc 1 1524 21 is_stmt 1 view .LVU1122
1524:Core/test/unity.c ****                     increment  = sizeof(UNITY_INT32);
 4208              		.loc 1 1524 32 is_stmt 0 view .LVU1123
 4209 00c8 2768     		ldr	r7, [r4]
 4210              	.LVL506:
1525:Core/test/unity.c ****                 }
 4211              		.loc 1 1525 21 is_stmt 1 view .LVU1124
1525:Core/test/unity.c ****                 }
 4212              		.loc 1 1525 21 is_stmt 0 view .LVU1125
 4213 00ca 0423     		movs	r3, #4
1533:Core/test/unity.c ****                 break;
 4214              		.loc 1 1533 24 view .LVU1126
 4215 00cc 1E46     		mov	r6, r3
 4216              	.LVL507:
1533:Core/test/unity.c ****                 break;
 4217              		.loc 1 1533 24 view .LVU1127
 4218 00ce D9E7     		b	.L382
 4219              	.LVL508:
 4220              	.L381:
1478:Core/test/unity.c ****                     actual_val = (UNITY_INT)*(UNITY_PTR_ATTRIBUTE const UNITY_UINT8*)actual;
 4221              		.loc 1 1478 21 is_stmt 1 view .LVU1128
1478:Core/test/unity.c ****                     actual_val = (UNITY_INT)*(UNITY_PTR_ATTRIBUTE const UNITY_UINT8*)actual;
 4222              		.loc 1 1478 45 is_stmt 0 view .LVU1129
 4223 00d0 9AF80080 		ldrb	r8, [r10]	@ zero_extendqisi2
 4224              	.LVL509:
1479:Core/test/unity.c ****                     increment  = sizeof(UNITY_UINT8);
 4225              		.loc 1 1479 21 is_stmt 1 view .LVU1130
1479:Core/test/unity.c ****                     increment  = sizeof(UNITY_UINT8);
 4226              		.loc 1 1479 45 is_stmt 0 view .LVU1131
 4227 00d4 2778     		ldrb	r7, [r4]	@ zero_extendqisi2
 4228              	.LVL510:
ARM GAS  C:\Users\ASUS\AppData\Local\Temp\ccstHO0r.s 			page 118


1480:Core/test/unity.c ****                 }
 4229              		.loc 1 1480 21 is_stmt 1 view .LVU1132
1480:Core/test/unity.c ****                 }
 4230              		.loc 1 1480 32 is_stmt 0 view .LVU1133
 4231 00d6 3346     		mov	r3, r6
 4232 00d8 D4E7     		b	.L382
 4233              	.LVL511:
 4234              	.L393:
1486:Core/test/unity.c ****                 {
 4235              		.loc 1 1486 17 is_stmt 1 view .LVU1134
1486:Core/test/unity.c ****                 {
 4236              		.loc 1 1486 20 is_stmt 0 view .LVU1135
 4237 00da 19F0100F 		tst	r9, #16
 4238 00de 05D0     		beq	.L383
1488:Core/test/unity.c ****                     actual_val = *(UNITY_PTR_ATTRIBUTE const UNITY_INT16*)actual;
 4239              		.loc 1 1488 21 is_stmt 1 view .LVU1136
1488:Core/test/unity.c ****                     actual_val = *(UNITY_PTR_ATTRIBUTE const UNITY_INT16*)actual;
 4240              		.loc 1 1488 34 is_stmt 0 view .LVU1137
 4241 00e0 BAF90080 		ldrsh	r8, [r10]
 4242              	.LVL512:
1489:Core/test/unity.c ****                     increment  = sizeof(UNITY_INT16);
 4243              		.loc 1 1489 21 is_stmt 1 view .LVU1138
1489:Core/test/unity.c ****                     increment  = sizeof(UNITY_INT16);
 4244              		.loc 1 1489 34 is_stmt 0 view .LVU1139
 4245 00e4 B4F90070 		ldrsh	r7, [r4]
 4246              	.LVL513:
1490:Core/test/unity.c ****                 }
 4247              		.loc 1 1490 21 is_stmt 1 view .LVU1140
1490:Core/test/unity.c ****                 }
 4248              		.loc 1 1490 32 is_stmt 0 view .LVU1141
 4249 00e8 3346     		mov	r3, r6
 4250 00ea CBE7     		b	.L382
 4251              	.LVL514:
 4252              	.L383:
1494:Core/test/unity.c ****                     actual_val = (UNITY_INT)*(UNITY_PTR_ATTRIBUTE const UNITY_UINT16*)actual;
 4253              		.loc 1 1494 21 is_stmt 1 view .LVU1142
1494:Core/test/unity.c ****                     actual_val = (UNITY_INT)*(UNITY_PTR_ATTRIBUTE const UNITY_UINT16*)actual;
 4254              		.loc 1 1494 45 is_stmt 0 view .LVU1143
 4255 00ec BAF80080 		ldrh	r8, [r10]
 4256              	.LVL515:
1495:Core/test/unity.c ****                     increment  = sizeof(UNITY_UINT16);
 4257              		.loc 1 1495 21 is_stmt 1 view .LVU1144
1495:Core/test/unity.c ****                     increment  = sizeof(UNITY_UINT16);
 4258              		.loc 1 1495 45 is_stmt 0 view .LVU1145
 4259 00f0 2788     		ldrh	r7, [r4]
 4260              	.LVL516:
1496:Core/test/unity.c ****                 }
 4261              		.loc 1 1496 21 is_stmt 1 view .LVU1146
1496:Core/test/unity.c ****                 }
 4262              		.loc 1 1496 32 is_stmt 0 view .LVU1147
 4263 00f2 3346     		mov	r3, r6
 4264 00f4 C6E7     		b	.L382
 4265              	.LVL517:
 4266              	.L384:
1529:Core/test/unity.c ****                     actual_val = (UNITY_INT)*(UNITY_PTR_ATTRIBUTE const UNITY_UINT32*)actual;
 4267              		.loc 1 1529 21 is_stmt 1 view .LVU1148
1529:Core/test/unity.c ****                     actual_val = (UNITY_INT)*(UNITY_PTR_ATTRIBUTE const UNITY_UINT32*)actual;
ARM GAS  C:\Users\ASUS\AppData\Local\Temp\ccstHO0r.s 			page 119


 4268              		.loc 1 1529 45 is_stmt 0 view .LVU1149
 4269 00f6 DAF80080 		ldr	r8, [r10]
 4270              	.LVL518:
1530:Core/test/unity.c ****                     increment  = sizeof(UNITY_UINT32);
 4271              		.loc 1 1530 21 is_stmt 1 view .LVU1150
1530:Core/test/unity.c ****                     increment  = sizeof(UNITY_UINT32);
 4272              		.loc 1 1530 45 is_stmt 0 view .LVU1151
 4273 00fa 2768     		ldr	r7, [r4]
 4274              	.LVL519:
1531:Core/test/unity.c ****                 }
 4275              		.loc 1 1531 21 is_stmt 1 view .LVU1152
1530:Core/test/unity.c ****                     increment  = sizeof(UNITY_UINT32);
 4276              		.loc 1 1530 32 is_stmt 0 view .LVU1153
 4277 00fc 0423     		movs	r3, #4
1533:Core/test/unity.c ****                 break;
 4278              		.loc 1 1533 24 view .LVU1154
 4279 00fe 1E46     		mov	r6, r3
 4280              	.LVL520:
1533:Core/test/unity.c ****                 break;
 4281              		.loc 1 1533 24 view .LVU1155
 4282 0100 C0E7     		b	.L382
 4283              	.LVL521:
 4284              	.L386:
1545:Core/test/unity.c ****             }
 4285              		.loc 1 1545 17 is_stmt 1 view .LVU1156
1545:Core/test/unity.c ****             }
 4286              		.loc 1 1545 68 is_stmt 0 view .LVU1157
 4287 0102 A8EB0702 		sub	r2, r8, r7
1545:Core/test/unity.c ****             }
 4288              		.loc 1 1545 94 view .LVU1158
 4289 0106 0099     		ldr	r1, [sp]
 4290 0108 8A42     		cmp	r2, r1
 4291 010a 94BF     		ite	ls
 4292 010c 0022     		movls	r2, #0
 4293 010e 0122     		movhi	r2, #1
1545:Core/test/unity.c ****             }
 4294              		.loc 1 1545 41 view .LVU1159
 4295 0110 2949     		ldr	r1, .L402
 4296 0112 0A62     		str	r2, [r1, #32]
 4297 0114 C4E7     		b	.L387
 4298              	.L385:
1550:Core/test/unity.c ****             {
 4299              		.loc 1 1550 13 is_stmt 1 view .LVU1160
1550:Core/test/unity.c ****             {
 4300              		.loc 1 1550 16 is_stmt 0 view .LVU1161
 4301 0116 4745     		cmp	r7, r8
 4302 0118 09D9     		bls	.L388
1552:Core/test/unity.c ****             }
 4303              		.loc 1 1552 17 is_stmt 1 view .LVU1162
1552:Core/test/unity.c ****             }
 4304              		.loc 1 1552 68 is_stmt 0 view .LVU1163
 4305 011a A7EB0802 		sub	r2, r7, r8
1552:Core/test/unity.c ****             }
 4306              		.loc 1 1552 94 view .LVU1164
 4307 011e 0099     		ldr	r1, [sp]
 4308 0120 8A42     		cmp	r2, r1
 4309 0122 94BF     		ite	ls
ARM GAS  C:\Users\ASUS\AppData\Local\Temp\ccstHO0r.s 			page 120


 4310 0124 0022     		movls	r2, #0
 4311 0126 0122     		movhi	r2, #1
1552:Core/test/unity.c ****             }
 4312              		.loc 1 1552 41 view .LVU1165
 4313 0128 2349     		ldr	r1, .L402
 4314 012a 0A62     		str	r2, [r1, #32]
 4315 012c B8E7     		b	.L387
 4316              	.L388:
1556:Core/test/unity.c ****             }
 4317              		.loc 1 1556 17 is_stmt 1 view .LVU1166
1556:Core/test/unity.c ****             }
 4318              		.loc 1 1556 68 is_stmt 0 view .LVU1167
 4319 012e A8EB0702 		sub	r2, r8, r7
1556:Core/test/unity.c ****             }
 4320              		.loc 1 1556 94 view .LVU1168
 4321 0132 0099     		ldr	r1, [sp]
 4322 0134 8A42     		cmp	r2, r1
 4323 0136 94BF     		ite	ls
 4324 0138 0022     		movls	r2, #0
 4325 013a 0122     		movhi	r2, #1
1556:Core/test/unity.c ****             }
 4326              		.loc 1 1556 41 view .LVU1169
 4327 013c 1E49     		ldr	r1, .L402
 4328 013e 0A62     		str	r2, [r1, #32]
 4329 0140 AEE7     		b	.L387
 4330              	.L400:
1562:Core/test/unity.c ****             {   /* For UINT, remove sign extension (padding 1's) from signed type casts above */
 4331              		.loc 1 1562 13 is_stmt 1 view .LVU1170
1562:Core/test/unity.c ****             {   /* For UINT, remove sign extension (padding 1's) from signed type casts above */
 4332              		.loc 1 1562 16 is_stmt 0 view .LVU1171
 4333 0142 19F0200F 		tst	r9, #32
 4334 0146 08D0     		beq	.L390
1562:Core/test/unity.c ****             {   /* For UINT, remove sign extension (padding 1's) from signed type casts above */
 4335              		.loc 1 1562 52 discriminator 1 view .LVU1172
 4336 0148 032E     		cmp	r6, #3
 4337 014a 06D8     		bhi	.L390
 4338              	.LBB15:
1564:Core/test/unity.c ****                 mask = (mask << 8 * length) - 1;
 4339              		.loc 1 1564 17 is_stmt 1 view .LVU1173
 4340              	.LVL522:
1565:Core/test/unity.c ****                 expect_val &= mask;
 4341              		.loc 1 1565 17 view .LVU1174
1565:Core/test/unity.c ****                 expect_val &= mask;
 4342              		.loc 1 1565 35 is_stmt 0 view .LVU1175
 4343 014c F600     		lsls	r6, r6, #3
 4344              	.LVL523:
1565:Core/test/unity.c ****                 expect_val &= mask;
 4345              		.loc 1 1565 30 view .LVU1176
 4346 014e 0123     		movs	r3, #1
 4347              	.LVL524:
1565:Core/test/unity.c ****                 expect_val &= mask;
 4348              		.loc 1 1565 30 view .LVU1177
 4349 0150 B340     		lsls	r3, r3, r6
1565:Core/test/unity.c ****                 expect_val &= mask;
 4350              		.loc 1 1565 22 view .LVU1178
 4351 0152 013B     		subs	r3, r3, #1
 4352              	.LVL525:
ARM GAS  C:\Users\ASUS\AppData\Local\Temp\ccstHO0r.s 			page 121


1566:Core/test/unity.c ****                 actual_val &= mask;
 4353              		.loc 1 1566 17 is_stmt 1 view .LVU1179
1566:Core/test/unity.c ****                 actual_val &= mask;
 4354              		.loc 1 1566 28 is_stmt 0 view .LVU1180
 4355 0154 08EA0308 		and	r8, r8, r3
 4356              	.LVL526:
1567:Core/test/unity.c ****             }
 4357              		.loc 1 1567 17 is_stmt 1 view .LVU1181
1567:Core/test/unity.c ****             }
 4358              		.loc 1 1567 28 is_stmt 0 view .LVU1182
 4359 0158 1F40     		ands	r7, r7, r3
 4360              	.LVL527:
 4361              	.L390:
1567:Core/test/unity.c ****             }
 4362              		.loc 1 1567 28 view .LVU1183
 4363              	.LBE15:
1569:Core/test/unity.c ****             UnityPrint(UnityStrDelta);
 4364              		.loc 1 1569 13 is_stmt 1 view .LVU1184
 4365 015a 0D98     		ldr	r0, [sp, #52]
 4366 015c FFF7FEFF 		bl	UnityTestResultsFailBegin
 4367              	.LVL528:
1570:Core/test/unity.c ****             UnityPrintNumberByStyle((UNITY_INT)delta, style);
 4368              		.loc 1 1570 13 view .LVU1185
 4369 0160 1848     		ldr	r0, .L402+12
 4370 0162 FFF7FEFF 		bl	UnityPrint
 4371              	.LVL529:
1571:Core/test/unity.c ****             UnityPrint(UnityStrElement);
 4372              		.loc 1 1571 13 view .LVU1186
 4373 0166 4946     		mov	r1, r9
 4374 0168 0098     		ldr	r0, [sp]
 4375 016a FFF7FEFF 		bl	UnityPrintNumberByStyle
 4376              	.LVL530:
1572:Core/test/unity.c ****             UnityPrintNumberUnsigned(num_elements - elements - 1);
 4377              		.loc 1 1572 13 view .LVU1187
 4378 016e 1648     		ldr	r0, .L402+16
 4379 0170 FFF7FEFF 		bl	UnityPrint
 4380              	.LVL531:
1573:Core/test/unity.c ****             UnityPrint(UnityStrExpected);
 4381              		.loc 1 1573 13 view .LVU1188
1573:Core/test/unity.c ****             UnityPrint(UnityStrExpected);
 4382              		.loc 1 1573 51 is_stmt 0 view .LVU1189
 4383 0174 019B     		ldr	r3, [sp, #4]
 4384 0176 581B     		subs	r0, r3, r5
1573:Core/test/unity.c ****             UnityPrint(UnityStrExpected);
 4385              		.loc 1 1573 13 view .LVU1190
 4386 0178 0138     		subs	r0, r0, #1
 4387 017a FFF7FEFF 		bl	UnityPrintNumberUnsigned
 4388              	.LVL532:
1574:Core/test/unity.c ****             UnityPrintNumberByStyle(expect_val, style);
 4389              		.loc 1 1574 13 is_stmt 1 view .LVU1191
 4390 017e 1348     		ldr	r0, .L402+20
 4391 0180 FFF7FEFF 		bl	UnityPrint
 4392              	.LVL533:
1575:Core/test/unity.c ****             UnityPrint(UnityStrWas);
 4393              		.loc 1 1575 13 view .LVU1192
 4394 0184 4946     		mov	r1, r9
 4395 0186 4046     		mov	r0, r8
ARM GAS  C:\Users\ASUS\AppData\Local\Temp\ccstHO0r.s 			page 122


 4396 0188 FFF7FEFF 		bl	UnityPrintNumberByStyle
 4397              	.LVL534:
1576:Core/test/unity.c ****             UnityPrintNumberByStyle(actual_val, style);
 4398              		.loc 1 1576 13 view .LVU1193
 4399 018c 1048     		ldr	r0, .L402+24
 4400 018e FFF7FEFF 		bl	UnityPrint
 4401              	.LVL535:
1577:Core/test/unity.c ****             UnityAddMsgIfSpecified(msg);
 4402              		.loc 1 1577 13 view .LVU1194
 4403 0192 4946     		mov	r1, r9
 4404 0194 3846     		mov	r0, r7
 4405 0196 FFF7FEFF 		bl	UnityPrintNumberByStyle
 4406              	.LVL536:
1578:Core/test/unity.c ****             UNITY_FAIL_AND_BAIL;
 4407              		.loc 1 1578 13 view .LVU1195
 4408 019a 0C98     		ldr	r0, [sp, #48]
 4409 019c FFF7FEFF 		bl	UnityAddMsgIfSpecified
 4410              	.LVL537:
1579:Core/test/unity.c ****         }
 4411              		.loc 1 1579 13 view .LVU1196
1579:Core/test/unity.c ****         }
 4412              		.loc 1 1579 13 view .LVU1197
 4413 01a0 0548     		ldr	r0, .L402
 4414 01a2 0121     		movs	r1, #1
 4415 01a4 0162     		str	r1, [r0, #32]
1579:Core/test/unity.c ****         }
 4416              		.loc 1 1579 13 view .LVU1198
1579:Core/test/unity.c ****         }
 4417              		.loc 1 1579 13 view .LVU1199
 4418 01a6 2830     		adds	r0, r0, #40
 4419 01a8 FFF7FEFF 		bl	longjmp
 4420              	.LVL538:
 4421              	.L401:
1584:Core/test/unity.c ****         }
 4422              		.loc 1 1584 13 view .LVU1200
1584:Core/test/unity.c ****         }
 4423              		.loc 1 1584 22 is_stmt 0 view .LVU1201
 4424 01ac 9A44     		add	r10, r10, r3
 4425              	.LVL539:
1584:Core/test/unity.c ****         }
 4426              		.loc 1 1584 22 view .LVU1202
 4427 01ae 7EE7     		b	.L391
 4428              	.LVL540:
 4429              	.L375:
1584:Core/test/unity.c ****         }
 4430              		.loc 1 1584 22 view .LVU1203
 4431              	.LBE16:
1587:Core/test/unity.c ****     }
1588:Core/test/unity.c **** }
 4432              		.loc 1 1588 1 view .LVU1204
 4433 01b0 03B0     		add	sp, sp, #12
 4434              	.LCFI54:
 4435              		.cfi_def_cfa_offset 36
 4436              	.LVL541:
 4437              		.loc 1 1588 1 view .LVU1205
 4438              		@ sp needed
 4439 01b2 BDE8F08F 		pop	{r4, r5, r6, r7, r8, r9, r10, fp, pc}
ARM GAS  C:\Users\ASUS\AppData\Local\Temp\ccstHO0r.s 			page 123


 4440              	.LVL542:
 4441              	.L403:
 4442              		.loc 1 1588 1 view .LVU1206
 4443 01b6 00BF     		.align	2
 4444              	.L402:
 4445 01b8 00000000 		.word	.LANCHOR0
 4446 01bc 28000000 		.word	.LANCHOR0+40
 4447 01c0 00000000 		.word	.LANCHOR15
 4448 01c4 00000000 		.word	.LANCHOR20
 4449 01c8 00000000 		.word	.LANCHOR16
 4450 01cc 00000000 		.word	.LANCHOR7
 4451 01d0 00000000 		.word	.LANCHOR9
 4452              		.cfi_endproc
 4453              	.LFE164:
 4455              		.section	.text.UnityAssertEqualString,"ax",%progbits
 4456              		.align	1
 4457              		.global	UnityAssertEqualString
 4458              		.syntax unified
 4459              		.thumb
 4460              		.thumb_func
 4461              		.fpu fpv4-sp-d16
 4463              	UnityAssertEqualString:
 4464              	.LVL543:
 4465              	.LFB165:
1589:Core/test/unity.c **** 
1590:Core/test/unity.c **** /*-----------------------------------------------*/
1591:Core/test/unity.c **** void UnityAssertEqualString(const char* expected,
1592:Core/test/unity.c ****                             const char* actual,
1593:Core/test/unity.c ****                             const char* msg,
1594:Core/test/unity.c ****                             const UNITY_LINE_TYPE lineNumber)
1595:Core/test/unity.c **** {
 4466              		.loc 1 1595 1 is_stmt 1 view -0
 4467              		.cfi_startproc
 4468              		@ args = 0, pretend = 0, frame = 0
 4469              		@ frame_needed = 0, uses_anonymous_args = 0
 4470              		.loc 1 1595 1 is_stmt 0 view .LVU1208
 4471 0000 2DE9F041 		push	{r4, r5, r6, r7, r8, lr}
 4472              	.LCFI55:
 4473              		.cfi_def_cfa_offset 24
 4474              		.cfi_offset 4, -24
 4475              		.cfi_offset 5, -20
 4476              		.cfi_offset 6, -16
 4477              		.cfi_offset 7, -12
 4478              		.cfi_offset 8, -8
 4479              		.cfi_offset 14, -4
 4480 0004 9046     		mov	r8, r2
1596:Core/test/unity.c ****     UNITY_UINT32 i;
 4481              		.loc 1 1596 5 is_stmt 1 view .LVU1209
1597:Core/test/unity.c **** 
1598:Core/test/unity.c ****     RETURN_IF_FAIL_OR_IGNORE;
 4482              		.loc 1 1598 5 view .LVU1210
 4483              		.loc 1 1598 5 view .LVU1211
 4484 0006 1C4A     		ldr	r2, .L418
 4485              	.LVL544:
 4486              		.loc 1 1598 5 is_stmt 0 view .LVU1212
 4487 0008 126A     		ldr	r2, [r2, #32]
 4488 000a 7AB9     		cbnz	r2, .L405
ARM GAS  C:\Users\ASUS\AppData\Local\Temp\ccstHO0r.s 			page 124


 4489 000c 0746     		mov	r7, r0
 4490 000e 0E46     		mov	r6, r1
 4491              		.loc 1 1598 5 discriminator 2 view .LVU1213
 4492 0010 194A     		ldr	r2, .L418
 4493 0012 546A     		ldr	r4, [r2, #36]
 4494 0014 54B9     		cbnz	r4, .L405
 4495              		.loc 1 1598 5 is_stmt 1 discriminator 4 view .LVU1214
1599:Core/test/unity.c **** 
1600:Core/test/unity.c ****     /* if both pointers not null compare the strings */
1601:Core/test/unity.c ****     if (expected && actual)
 4496              		.loc 1 1601 5 discriminator 4 view .LVU1215
 4497              		.loc 1 1601 8 is_stmt 0 discriminator 4 view .LVU1216
 4498 0016 00B1     		cbz	r0, .L407
 4499              		.loc 1 1601 18 discriminator 1 view .LVU1217
 4500 0018 81B9     		cbnz	r1, .L408
 4501              	.L407:
1602:Core/test/unity.c ****     {
1603:Core/test/unity.c ****         for (i = 0; expected[i] || actual[i]; i++)
1604:Core/test/unity.c ****         {
1605:Core/test/unity.c ****             if (expected[i] != actual[i])
1606:Core/test/unity.c ****             {
1607:Core/test/unity.c ****                 Unity.CurrentTestFailed = 1;
1608:Core/test/unity.c ****                 break;
1609:Core/test/unity.c ****             }
1610:Core/test/unity.c ****         }
1611:Core/test/unity.c ****     }
1612:Core/test/unity.c ****     else
1613:Core/test/unity.c ****     { /* fail if either null but not if both */
1614:Core/test/unity.c ****         if (expected || actual)
 4502              		.loc 1 1614 9 is_stmt 1 view .LVU1218
 4503              		.loc 1 1614 12 is_stmt 0 view .LVU1219
 4504 001a D7B1     		cbz	r7, .L415
 4505              	.L412:
1615:Core/test/unity.c ****         {
1616:Core/test/unity.c ****             Unity.CurrentTestFailed = 1;
 4506              		.loc 1 1616 13 is_stmt 1 view .LVU1220
 4507              		.loc 1 1616 37 is_stmt 0 view .LVU1221
 4508 001c 164A     		ldr	r2, .L418
 4509 001e 0121     		movs	r1, #1
 4510              	.LVL545:
 4511              		.loc 1 1616 37 view .LVU1222
 4512 0020 1162     		str	r1, [r2, #32]
 4513              	.L410:
1617:Core/test/unity.c ****         }
1618:Core/test/unity.c ****     }
1619:Core/test/unity.c **** 
1620:Core/test/unity.c ****     if (Unity.CurrentTestFailed)
 4514              		.loc 1 1620 5 is_stmt 1 view .LVU1223
 4515              		.loc 1 1620 14 is_stmt 0 view .LVU1224
 4516 0022 154A     		ldr	r2, .L418
 4517 0024 126A     		ldr	r2, [r2, #32]
 4518              		.loc 1 1620 8 view .LVU1225
 4519 0026 BAB9     		cbnz	r2, .L416
1621:Core/test/unity.c ****     {
1622:Core/test/unity.c ****         UnityTestResultsFailBegin(lineNumber);
1623:Core/test/unity.c ****         UnityPrintExpectedAndActualStrings(expected, actual);
1624:Core/test/unity.c ****         UnityAddMsgIfSpecified(msg);
ARM GAS  C:\Users\ASUS\AppData\Local\Temp\ccstHO0r.s 			page 125


1625:Core/test/unity.c ****         UNITY_FAIL_AND_BAIL;
1626:Core/test/unity.c ****     }
1627:Core/test/unity.c **** }
 4520              		.loc 1 1627 1 view .LVU1226
 4521 0028 BDE8F081 		pop	{r4, r5, r6, r7, r8, pc}
 4522              	.LVL546:
 4523              	.L405:
1598:Core/test/unity.c **** 
 4524              		.loc 1 1598 5 is_stmt 1 discriminator 3 view .LVU1227
 4525 002c 0121     		movs	r1, #1
 4526              	.LVL547:
1598:Core/test/unity.c **** 
 4527              		.loc 1 1598 5 is_stmt 0 discriminator 3 view .LVU1228
 4528 002e 1348     		ldr	r0, .L418+4
 4529              	.LVL548:
1598:Core/test/unity.c **** 
 4530              		.loc 1 1598 5 discriminator 3 view .LVU1229
 4531 0030 FFF7FEFF 		bl	longjmp
 4532              	.LVL549:
 4533              	.L411:
1605:Core/test/unity.c ****             {
 4534              		.loc 1 1605 13 is_stmt 1 view .LVU1230
1605:Core/test/unity.c ****             {
 4535              		.loc 1 1605 38 is_stmt 0 view .LVU1231
 4536 0034 315D     		ldrb	r1, [r6, r4]	@ zero_extendqisi2
1605:Core/test/unity.c ****             {
 4537              		.loc 1 1605 16 view .LVU1232
 4538 0036 A942     		cmp	r1, r5
 4539 0038 07D1     		bne	.L417
1603:Core/test/unity.c ****         {
 4540              		.loc 1 1603 47 is_stmt 1 discriminator 2 view .LVU1233
1603:Core/test/unity.c ****         {
 4541              		.loc 1 1603 48 is_stmt 0 discriminator 2 view .LVU1234
 4542 003a 0134     		adds	r4, r4, #1
 4543              	.LVL550:
 4544              	.L408:
1603:Core/test/unity.c ****         {
 4545              		.loc 1 1603 21 is_stmt 1 discriminator 1 view .LVU1235
1603:Core/test/unity.c ****         {
 4546              		.loc 1 1603 29 is_stmt 0 discriminator 1 view .LVU1236
 4547 003c 3D5D     		ldrb	r5, [r7, r4]	@ zero_extendqisi2
1603:Core/test/unity.c ****         {
 4548              		.loc 1 1603 9 discriminator 1 view .LVU1237
 4549 003e 002D     		cmp	r5, #0
 4550 0040 F8D1     		bne	.L411
1603:Core/test/unity.c ****         {
 4551              		.loc 1 1603 42 discriminator 3 view .LVU1238
 4552 0042 315D     		ldrb	r1, [r6, r4]	@ zero_extendqisi2
1603:Core/test/unity.c ****         {
 4553              		.loc 1 1603 33 discriminator 3 view .LVU1239
 4554 0044 0029     		cmp	r1, #0
 4555 0046 F5D1     		bne	.L411
 4556 0048 EBE7     		b	.L410
 4557              	.L417:
1607:Core/test/unity.c ****                 break;
 4558              		.loc 1 1607 17 is_stmt 1 view .LVU1240
1607:Core/test/unity.c ****                 break;
ARM GAS  C:\Users\ASUS\AppData\Local\Temp\ccstHO0r.s 			page 126


 4559              		.loc 1 1607 41 is_stmt 0 view .LVU1241
 4560 004a 0B4A     		ldr	r2, .L418
 4561 004c 0121     		movs	r1, #1
 4562 004e 1162     		str	r1, [r2, #32]
1608:Core/test/unity.c ****             }
 4563              		.loc 1 1608 17 is_stmt 1 view .LVU1242
 4564 0050 E7E7     		b	.L410
 4565              	.LVL551:
 4566              	.L415:
1614:Core/test/unity.c ****         {
 4567              		.loc 1 1614 22 is_stmt 0 discriminator 1 view .LVU1243
 4568 0052 002E     		cmp	r6, #0
 4569 0054 E2D1     		bne	.L412
 4570 0056 E4E7     		b	.L410
 4571              	.LVL552:
 4572              	.L416:
1622:Core/test/unity.c ****         UnityPrintExpectedAndActualStrings(expected, actual);
 4573              		.loc 1 1622 9 is_stmt 1 view .LVU1244
 4574 0058 1846     		mov	r0, r3
 4575              	.LVL553:
1622:Core/test/unity.c ****         UnityPrintExpectedAndActualStrings(expected, actual);
 4576              		.loc 1 1622 9 is_stmt 0 view .LVU1245
 4577 005a FFF7FEFF 		bl	UnityTestResultsFailBegin
 4578              	.LVL554:
1623:Core/test/unity.c ****         UnityAddMsgIfSpecified(msg);
 4579              		.loc 1 1623 9 is_stmt 1 view .LVU1246
 4580 005e 3146     		mov	r1, r6
 4581 0060 3846     		mov	r0, r7
 4582 0062 FFF7FEFF 		bl	UnityPrintExpectedAndActualStrings
 4583              	.LVL555:
1624:Core/test/unity.c ****         UNITY_FAIL_AND_BAIL;
 4584              		.loc 1 1624 9 view .LVU1247
 4585 0066 4046     		mov	r0, r8
 4586 0068 FFF7FEFF 		bl	UnityAddMsgIfSpecified
 4587              	.LVL556:
1625:Core/test/unity.c ****     }
 4588              		.loc 1 1625 9 view .LVU1248
1625:Core/test/unity.c ****     }
 4589              		.loc 1 1625 9 view .LVU1249
 4590 006c 0248     		ldr	r0, .L418
 4591 006e 0121     		movs	r1, #1
 4592 0070 0162     		str	r1, [r0, #32]
1625:Core/test/unity.c ****     }
 4593              		.loc 1 1625 9 view .LVU1250
1625:Core/test/unity.c ****     }
 4594              		.loc 1 1625 9 view .LVU1251
 4595 0072 2830     		adds	r0, r0, #40
 4596 0074 FFF7FEFF 		bl	longjmp
 4597              	.LVL557:
 4598              	.L419:
 4599              		.align	2
 4600              	.L418:
 4601 0078 00000000 		.word	.LANCHOR0
 4602 007c 28000000 		.word	.LANCHOR0+40
 4603              		.cfi_endproc
 4604              	.LFE165:
 4606              		.section	.text.UnityAssertEqualStringLen,"ax",%progbits
ARM GAS  C:\Users\ASUS\AppData\Local\Temp\ccstHO0r.s 			page 127


 4607              		.align	1
 4608              		.global	UnityAssertEqualStringLen
 4609              		.syntax unified
 4610              		.thumb
 4611              		.thumb_func
 4612              		.fpu fpv4-sp-d16
 4614              	UnityAssertEqualStringLen:
 4615              	.LVL558:
 4616              	.LFB166:
1628:Core/test/unity.c **** 
1629:Core/test/unity.c **** /*-----------------------------------------------*/
1630:Core/test/unity.c **** void UnityAssertEqualStringLen(const char* expected,
1631:Core/test/unity.c ****                                const char* actual,
1632:Core/test/unity.c ****                                const UNITY_UINT32 length,
1633:Core/test/unity.c ****                                const char* msg,
1634:Core/test/unity.c ****                                const UNITY_LINE_TYPE lineNumber)
1635:Core/test/unity.c **** {
 4617              		.loc 1 1635 1 view -0
 4618              		.cfi_startproc
 4619              		@ args = 4, pretend = 0, frame = 0
 4620              		@ frame_needed = 0, uses_anonymous_args = 0
 4621              		.loc 1 1635 1 is_stmt 0 view .LVU1253
 4622 0000 2DE9F843 		push	{r3, r4, r5, r6, r7, r8, r9, lr}
 4623              	.LCFI56:
 4624              		.cfi_def_cfa_offset 32
 4625              		.cfi_offset 3, -32
 4626              		.cfi_offset 4, -28
 4627              		.cfi_offset 5, -24
 4628              		.cfi_offset 6, -20
 4629              		.cfi_offset 7, -16
 4630              		.cfi_offset 8, -12
 4631              		.cfi_offset 9, -8
 4632              		.cfi_offset 14, -4
 4633 0004 9946     		mov	r9, r3
1636:Core/test/unity.c ****     UNITY_UINT32 i;
 4634              		.loc 1 1636 5 is_stmt 1 view .LVU1254
1637:Core/test/unity.c **** 
1638:Core/test/unity.c ****     RETURN_IF_FAIL_OR_IGNORE;
 4635              		.loc 1 1638 5 view .LVU1255
 4636              		.loc 1 1638 5 view .LVU1256
 4637 0006 1E4B     		ldr	r3, .L434
 4638              	.LVL559:
 4639              		.loc 1 1638 5 is_stmt 0 view .LVU1257
 4640 0008 1B6A     		ldr	r3, [r3, #32]
 4641 000a 83B9     		cbnz	r3, .L421
 4642 000c 0746     		mov	r7, r0
 4643 000e 0E46     		mov	r6, r1
 4644 0010 9046     		mov	r8, r2
 4645              		.loc 1 1638 5 discriminator 2 view .LVU1258
 4646 0012 1B4B     		ldr	r3, .L434
 4647 0014 5C6A     		ldr	r4, [r3, #36]
 4648 0016 54B9     		cbnz	r4, .L421
 4649              		.loc 1 1638 5 is_stmt 1 discriminator 4 view .LVU1259
1639:Core/test/unity.c **** 
1640:Core/test/unity.c ****     /* if both pointers not null compare the strings */
1641:Core/test/unity.c ****     if (expected && actual)
 4650              		.loc 1 1641 5 discriminator 4 view .LVU1260
ARM GAS  C:\Users\ASUS\AppData\Local\Temp\ccstHO0r.s 			page 128


 4651              		.loc 1 1641 8 is_stmt 0 discriminator 4 view .LVU1261
 4652 0018 00B1     		cbz	r0, .L423
 4653              		.loc 1 1641 18 discriminator 1 view .LVU1262
 4654 001a 81B9     		cbnz	r1, .L424
 4655              	.L423:
1642:Core/test/unity.c ****     {
1643:Core/test/unity.c ****         for (i = 0; (i < length) && (expected[i] || actual[i]); i++)
1644:Core/test/unity.c ****         {
1645:Core/test/unity.c ****             if (expected[i] != actual[i])
1646:Core/test/unity.c ****             {
1647:Core/test/unity.c ****                 Unity.CurrentTestFailed = 1;
1648:Core/test/unity.c ****                 break;
1649:Core/test/unity.c ****             }
1650:Core/test/unity.c ****         }
1651:Core/test/unity.c ****     }
1652:Core/test/unity.c ****     else
1653:Core/test/unity.c ****     { /* fail if either null but not if both */
1654:Core/test/unity.c ****         if (expected || actual)
 4656              		.loc 1 1654 9 is_stmt 1 view .LVU1263
 4657              		.loc 1 1654 12 is_stmt 0 view .LVU1264
 4658 001c E7B1     		cbz	r7, .L431
 4659              	.L428:
1655:Core/test/unity.c ****         {
1656:Core/test/unity.c ****             Unity.CurrentTestFailed = 1;
 4660              		.loc 1 1656 13 is_stmt 1 view .LVU1265
 4661              		.loc 1 1656 37 is_stmt 0 view .LVU1266
 4662 001e 184B     		ldr	r3, .L434
 4663 0020 0122     		movs	r2, #1
 4664              	.LVL560:
 4665              		.loc 1 1656 37 view .LVU1267
 4666 0022 1A62     		str	r2, [r3, #32]
 4667              	.LVL561:
 4668              	.L426:
1657:Core/test/unity.c ****         }
1658:Core/test/unity.c ****     }
1659:Core/test/unity.c **** 
1660:Core/test/unity.c ****     if (Unity.CurrentTestFailed)
 4669              		.loc 1 1660 5 is_stmt 1 view .LVU1268
 4670              		.loc 1 1660 14 is_stmt 0 view .LVU1269
 4671 0024 164B     		ldr	r3, .L434
 4672 0026 1B6A     		ldr	r3, [r3, #32]
 4673              		.loc 1 1660 8 view .LVU1270
 4674 0028 CBB9     		cbnz	r3, .L432
1661:Core/test/unity.c ****     {
1662:Core/test/unity.c ****         UnityTestResultsFailBegin(lineNumber);
1663:Core/test/unity.c ****         UnityPrintExpectedAndActualStringsLen(expected, actual, length);
1664:Core/test/unity.c ****         UnityAddMsgIfSpecified(msg);
1665:Core/test/unity.c ****         UNITY_FAIL_AND_BAIL;
1666:Core/test/unity.c ****     }
1667:Core/test/unity.c **** }
 4675              		.loc 1 1667 1 view .LVU1271
 4676 002a BDE8F883 		pop	{r3, r4, r5, r6, r7, r8, r9, pc}
 4677              	.LVL562:
 4678              	.L421:
1638:Core/test/unity.c **** 
 4679              		.loc 1 1638 5 is_stmt 1 discriminator 3 view .LVU1272
 4680 002e 0121     		movs	r1, #1
ARM GAS  C:\Users\ASUS\AppData\Local\Temp\ccstHO0r.s 			page 129


 4681              	.LVL563:
1638:Core/test/unity.c **** 
 4682              		.loc 1 1638 5 is_stmt 0 discriminator 3 view .LVU1273
 4683 0030 1448     		ldr	r0, .L434+4
 4684              	.LVL564:
1638:Core/test/unity.c **** 
 4685              		.loc 1 1638 5 discriminator 3 view .LVU1274
 4686 0032 FFF7FEFF 		bl	longjmp
 4687              	.LVL565:
 4688              	.L427:
1645:Core/test/unity.c ****             {
 4689              		.loc 1 1645 13 is_stmt 1 view .LVU1275
1645:Core/test/unity.c ****             {
 4690              		.loc 1 1645 38 is_stmt 0 view .LVU1276
 4691 0036 315D     		ldrb	r1, [r6, r4]	@ zero_extendqisi2
1645:Core/test/unity.c ****             {
 4692              		.loc 1 1645 16 view .LVU1277
 4693 0038 A942     		cmp	r1, r5
 4694 003a 09D1     		bne	.L433
1643:Core/test/unity.c ****         {
 4695              		.loc 1 1643 65 is_stmt 1 discriminator 2 view .LVU1278
1643:Core/test/unity.c ****         {
 4696              		.loc 1 1643 66 is_stmt 0 discriminator 2 view .LVU1279
 4697 003c 0134     		adds	r4, r4, #1
 4698              	.LVL566:
 4699              	.L424:
1643:Core/test/unity.c ****         {
 4700              		.loc 1 1643 21 is_stmt 1 discriminator 1 view .LVU1280
1643:Core/test/unity.c ****         {
 4701              		.loc 1 1643 9 is_stmt 0 discriminator 1 view .LVU1281
 4702 003e 4445     		cmp	r4, r8
 4703 0040 F0D2     		bcs	.L426
1643:Core/test/unity.c ****         {
 4704              		.loc 1 1643 46 discriminator 3 view .LVU1282
 4705 0042 3D5D     		ldrb	r5, [r7, r4]	@ zero_extendqisi2
1643:Core/test/unity.c ****         {
 4706              		.loc 1 1643 34 discriminator 3 view .LVU1283
 4707 0044 002D     		cmp	r5, #0
 4708 0046 F6D1     		bne	.L427
1643:Core/test/unity.c ****         {
 4709              		.loc 1 1643 59 discriminator 4 view .LVU1284
 4710 0048 325D     		ldrb	r2, [r6, r4]	@ zero_extendqisi2
1643:Core/test/unity.c ****         {
 4711              		.loc 1 1643 50 discriminator 4 view .LVU1285
 4712 004a 002A     		cmp	r2, #0
 4713 004c F3D1     		bne	.L427
 4714 004e E9E7     		b	.L426
 4715              	.L433:
1647:Core/test/unity.c ****                 break;
 4716              		.loc 1 1647 17 is_stmt 1 view .LVU1286
1647:Core/test/unity.c ****                 break;
 4717              		.loc 1 1647 41 is_stmt 0 view .LVU1287
 4718 0050 0B4B     		ldr	r3, .L434
 4719 0052 0122     		movs	r2, #1
 4720 0054 1A62     		str	r2, [r3, #32]
1648:Core/test/unity.c ****             }
 4721              		.loc 1 1648 17 is_stmt 1 view .LVU1288
ARM GAS  C:\Users\ASUS\AppData\Local\Temp\ccstHO0r.s 			page 130


 4722 0056 E5E7     		b	.L426
 4723              	.LVL567:
 4724              	.L431:
1654:Core/test/unity.c ****         {
 4725              		.loc 1 1654 22 is_stmt 0 discriminator 1 view .LVU1289
 4726 0058 002E     		cmp	r6, #0
 4727 005a E0D1     		bne	.L428
 4728 005c E2E7     		b	.L426
 4729              	.LVL568:
 4730              	.L432:
1662:Core/test/unity.c ****         UnityPrintExpectedAndActualStringsLen(expected, actual, length);
 4731              		.loc 1 1662 9 is_stmt 1 view .LVU1290
 4732 005e 0898     		ldr	r0, [sp, #32]
 4733              	.LVL569:
1662:Core/test/unity.c ****         UnityPrintExpectedAndActualStringsLen(expected, actual, length);
 4734              		.loc 1 1662 9 is_stmt 0 view .LVU1291
 4735 0060 FFF7FEFF 		bl	UnityTestResultsFailBegin
 4736              	.LVL570:
1663:Core/test/unity.c ****         UnityAddMsgIfSpecified(msg);
 4737              		.loc 1 1663 9 is_stmt 1 view .LVU1292
 4738 0064 4246     		mov	r2, r8
 4739 0066 3146     		mov	r1, r6
 4740 0068 3846     		mov	r0, r7
 4741 006a FFF7FEFF 		bl	UnityPrintExpectedAndActualStringsLen
 4742              	.LVL571:
1664:Core/test/unity.c ****         UNITY_FAIL_AND_BAIL;
 4743              		.loc 1 1664 9 view .LVU1293
 4744 006e 4846     		mov	r0, r9
 4745 0070 FFF7FEFF 		bl	UnityAddMsgIfSpecified
 4746              	.LVL572:
1665:Core/test/unity.c ****     }
 4747              		.loc 1 1665 9 view .LVU1294
1665:Core/test/unity.c ****     }
 4748              		.loc 1 1665 9 view .LVU1295
 4749 0074 0248     		ldr	r0, .L434
 4750 0076 0121     		movs	r1, #1
 4751 0078 0162     		str	r1, [r0, #32]
1665:Core/test/unity.c ****     }
 4752              		.loc 1 1665 9 view .LVU1296
1665:Core/test/unity.c ****     }
 4753              		.loc 1 1665 9 view .LVU1297
 4754 007a 2830     		adds	r0, r0, #40
 4755 007c FFF7FEFF 		bl	longjmp
 4756              	.LVL573:
 4757              	.L435:
 4758              		.align	2
 4759              	.L434:
 4760 0080 00000000 		.word	.LANCHOR0
 4761 0084 28000000 		.word	.LANCHOR0+40
 4762              		.cfi_endproc
 4763              	.LFE166:
 4765              		.section	.text.UnityAssertEqualStringArray,"ax",%progbits
 4766              		.align	1
 4767              		.global	UnityAssertEqualStringArray
 4768              		.syntax unified
 4769              		.thumb
 4770              		.thumb_func
ARM GAS  C:\Users\ASUS\AppData\Local\Temp\ccstHO0r.s 			page 131


 4771              		.fpu fpv4-sp-d16
 4773              	UnityAssertEqualStringArray:
 4774              	.LVL574:
 4775              	.LFB167:
1668:Core/test/unity.c **** 
1669:Core/test/unity.c **** /*-----------------------------------------------*/
1670:Core/test/unity.c **** void UnityAssertEqualStringArray(UNITY_INTERNAL_PTR expected,
1671:Core/test/unity.c ****                                  const char** actual,
1672:Core/test/unity.c ****                                  const UNITY_UINT32 num_elements,
1673:Core/test/unity.c ****                                  const char* msg,
1674:Core/test/unity.c ****                                  const UNITY_LINE_TYPE lineNumber,
1675:Core/test/unity.c ****                                  const UNITY_FLAGS_T flags)
1676:Core/test/unity.c **** {
 4776              		.loc 1 1676 1 view -0
 4777              		.cfi_startproc
 4778              		@ args = 8, pretend = 0, frame = 8
 4779              		@ frame_needed = 0, uses_anonymous_args = 0
 4780              		.loc 1 1676 1 is_stmt 0 view .LVU1299
 4781 0000 2DE9F04F 		push	{r4, r5, r6, r7, r8, r9, r10, fp, lr}
 4782              	.LCFI57:
 4783              		.cfi_def_cfa_offset 36
 4784              		.cfi_offset 4, -36
 4785              		.cfi_offset 5, -32
 4786              		.cfi_offset 6, -28
 4787              		.cfi_offset 7, -24
 4788              		.cfi_offset 8, -20
 4789              		.cfi_offset 9, -16
 4790              		.cfi_offset 10, -12
 4791              		.cfi_offset 11, -8
 4792              		.cfi_offset 14, -4
 4793 0004 83B0     		sub	sp, sp, #12
 4794              	.LCFI58:
 4795              		.cfi_def_cfa_offset 48
 4796 0006 0193     		str	r3, [sp, #4]
 4797 0008 9DF83490 		ldrb	r9, [sp, #52]	@ zero_extendqisi2
1677:Core/test/unity.c ****     UNITY_UINT32 i = 0;
 4798              		.loc 1 1677 5 is_stmt 1 view .LVU1300
 4799              	.LVL575:
1678:Core/test/unity.c ****     UNITY_UINT32 j = 0;
 4800              		.loc 1 1678 5 view .LVU1301
1679:Core/test/unity.c ****     const char* expd = NULL;
 4801              		.loc 1 1679 5 view .LVU1302
1680:Core/test/unity.c ****     const char* act = NULL;
 4802              		.loc 1 1680 5 view .LVU1303
1681:Core/test/unity.c **** 
1682:Core/test/unity.c ****     RETURN_IF_FAIL_OR_IGNORE;
 4803              		.loc 1 1682 5 view .LVU1304
 4804              		.loc 1 1682 5 view .LVU1305
 4805 000c 3C4B     		ldr	r3, .L462
 4806              	.LVL576:
 4807              		.loc 1 1682 5 is_stmt 0 view .LVU1306
 4808 000e 1B6A     		ldr	r3, [r3, #32]
 4809 0010 B3B9     		cbnz	r3, .L437
 4810 0012 8246     		mov	r10, r0
 4811 0014 0F46     		mov	r7, r1
 4812 0016 9046     		mov	r8, r2
 4813              		.loc 1 1682 5 discriminator 2 view .LVU1307
ARM GAS  C:\Users\ASUS\AppData\Local\Temp\ccstHO0r.s 			page 132


 4814 0018 394B     		ldr	r3, .L462
 4815 001a D3F824B0 		ldr	fp, [r3, #36]
 4816 001e BBF1000F 		cmp	fp, #0
 4817 0022 0DD1     		bne	.L437
 4818              		.loc 1 1682 5 is_stmt 1 discriminator 4 view .LVU1308
1683:Core/test/unity.c **** 
1684:Core/test/unity.c ****     /* if no elements, it's an error */
1685:Core/test/unity.c ****     if (num_elements == 0)
 4819              		.loc 1 1685 5 discriminator 4 view .LVU1309
 4820              		.loc 1 1685 8 is_stmt 0 discriminator 4 view .LVU1310
 4821 0024 82B1     		cbz	r2, .L455
1686:Core/test/unity.c ****     {
1687:Core/test/unity.c **** #ifdef UNITY_COMPARE_PTRS_ON_ZERO_ARRAY
1688:Core/test/unity.c ****         UNITY_TEST_ASSERT_EQUAL_PTR(expected, actual, lineNumber, msg);
1689:Core/test/unity.c **** #else
1690:Core/test/unity.c ****         UnityPrintPointlessAndBail();
 4822              		.loc 1 1690 9 is_stmt 1 view .LVU1311
 4823              		.loc 1 1690 9 view .LVU1312
1691:Core/test/unity.c **** #endif
1692:Core/test/unity.c ****     }
1693:Core/test/unity.c **** 
1694:Core/test/unity.c ****     if ((const void*)expected == (const void*)actual)
 4824              		.loc 1 1694 5 view .LVU1313
 4825              		.loc 1 1694 8 is_stmt 0 view .LVU1314
 4826 0026 8842     		cmp	r0, r1
 4827 0028 67D0     		beq	.L436
1695:Core/test/unity.c ****     {
1696:Core/test/unity.c ****         return; /* Both are NULL or same pointer */
1697:Core/test/unity.c ****     }
1698:Core/test/unity.c **** 
1699:Core/test/unity.c ****     if (UnityIsOneArrayNull((UNITY_INTERNAL_PTR)expected, (UNITY_INTERNAL_PTR)actual, lineNumber, m
 4828              		.loc 1 1699 5 is_stmt 1 view .LVU1315
 4829              		.loc 1 1699 9 is_stmt 0 view .LVU1316
 4830 002a 019B     		ldr	r3, [sp, #4]
 4831 002c 0C9A     		ldr	r2, [sp, #48]
 4832              	.LVL577:
 4833              		.loc 1 1699 9 view .LVU1317
 4834 002e FFF7FEFF 		bl	UnityIsOneArrayNull
 4835              	.LVL578:
 4836              		.loc 1 1699 8 view .LVU1318
 4837 0032 C0B9     		cbnz	r0, .L456
1700:Core/test/unity.c ****     {
1701:Core/test/unity.c ****         UNITY_FAIL_AND_BAIL;
 4838              		.loc 1 1701 9 is_stmt 1 view .LVU1319
1702:Core/test/unity.c ****     }
1703:Core/test/unity.c **** 
1704:Core/test/unity.c ****     if (flags != UNITY_ARRAY_TO_ARRAY)
 4839              		.loc 1 1704 5 view .LVU1320
 4840              		.loc 1 1704 8 is_stmt 0 view .LVU1321
 4841 0034 B9F1010F 		cmp	r9, #1
 4842 0038 1BD0     		beq	.L457
1705:Core/test/unity.c ****     {
1706:Core/test/unity.c ****         expd = (const char*)expected;
 4843              		.loc 1 1706 14 view .LVU1322
 4844 003a 5546     		mov	r5, r10
 4845              	.L442:
 4846              	.LVL579:
ARM GAS  C:\Users\ASUS\AppData\Local\Temp\ccstHO0r.s 			page 133


1679:Core/test/unity.c ****     const char* act = NULL;
 4847              		.loc 1 1679 17 view .LVU1323
 4848 003c 5E46     		mov	r6, fp
 4849 003e 37E0     		b	.L451
 4850              	.LVL580:
 4851              	.L437:
1682:Core/test/unity.c **** 
 4852              		.loc 1 1682 5 is_stmt 1 discriminator 3 view .LVU1324
 4853 0040 0121     		movs	r1, #1
 4854              	.LVL581:
1682:Core/test/unity.c **** 
 4855              		.loc 1 1682 5 is_stmt 0 discriminator 3 view .LVU1325
 4856 0042 3048     		ldr	r0, .L462+4
 4857              	.LVL582:
1682:Core/test/unity.c **** 
 4858              		.loc 1 1682 5 discriminator 3 view .LVU1326
 4859 0044 FFF7FEFF 		bl	longjmp
 4860              	.LVL583:
 4861              	.L455:
1690:Core/test/unity.c **** #endif
 4862              		.loc 1 1690 9 is_stmt 1 view .LVU1327
1690:Core/test/unity.c **** #endif
 4863              		.loc 1 1690 9 view .LVU1328
 4864 0048 0C98     		ldr	r0, [sp, #48]
 4865              	.LVL584:
1690:Core/test/unity.c **** #endif
 4866              		.loc 1 1690 9 is_stmt 0 view .LVU1329
 4867 004a FFF7FEFF 		bl	UnityTestResultsFailBegin
 4868              	.LVL585:
1690:Core/test/unity.c **** #endif
 4869              		.loc 1 1690 9 is_stmt 1 view .LVU1330
 4870 004e 2E48     		ldr	r0, .L462+8
 4871 0050 FFF7FEFF 		bl	UnityPrint
 4872              	.LVL586:
1690:Core/test/unity.c **** #endif
 4873              		.loc 1 1690 9 view .LVU1331
 4874 0054 0198     		ldr	r0, [sp, #4]
 4875 0056 FFF7FEFF 		bl	UnityAddMsgIfSpecified
 4876              	.LVL587:
1690:Core/test/unity.c **** #endif
 4877              		.loc 1 1690 9 view .LVU1332
1690:Core/test/unity.c **** #endif
 4878              		.loc 1 1690 9 view .LVU1333
 4879 005a 2948     		ldr	r0, .L462
 4880 005c 0121     		movs	r1, #1
 4881 005e 0162     		str	r1, [r0, #32]
1690:Core/test/unity.c **** #endif
 4882              		.loc 1 1690 9 view .LVU1334
1690:Core/test/unity.c **** #endif
 4883              		.loc 1 1690 9 view .LVU1335
 4884 0060 2830     		adds	r0, r0, #40
 4885 0062 FFF7FEFF 		bl	longjmp
 4886              	.LVL588:
 4887              	.L456:
1701:Core/test/unity.c ****     }
 4888              		.loc 1 1701 9 view .LVU1336
1701:Core/test/unity.c ****     }
ARM GAS  C:\Users\ASUS\AppData\Local\Temp\ccstHO0r.s 			page 134


 4889              		.loc 1 1701 9 view .LVU1337
 4890 0066 2648     		ldr	r0, .L462
 4891 0068 0121     		movs	r1, #1
 4892 006a 0162     		str	r1, [r0, #32]
1701:Core/test/unity.c ****     }
 4893              		.loc 1 1701 9 view .LVU1338
1701:Core/test/unity.c ****     }
 4894              		.loc 1 1701 9 view .LVU1339
 4895 006c 2830     		adds	r0, r0, #40
 4896 006e FFF7FEFF 		bl	longjmp
 4897              	.LVL589:
 4898              	.L457:
1679:Core/test/unity.c ****     const char* act = NULL;
 4899              		.loc 1 1679 17 is_stmt 0 view .LVU1340
 4900 0072 0025     		movs	r5, #0
 4901 0074 E2E7     		b	.L442
 4902              	.LVL590:
 4903              	.L460:
1707:Core/test/unity.c ****     }
1708:Core/test/unity.c **** 
1709:Core/test/unity.c ****     do
1710:Core/test/unity.c ****     {
1711:Core/test/unity.c ****         act = actual[j];
1712:Core/test/unity.c ****         if (flags == UNITY_ARRAY_TO_ARRAY)
1713:Core/test/unity.c ****         {
1714:Core/test/unity.c ****             expd = ((const char* const*)expected)[j];
 4904              		.loc 1 1714 13 is_stmt 1 view .LVU1341
 4905              		.loc 1 1714 18 is_stmt 0 view .LVU1342
 4906 0076 5AF82650 		ldr	r5, [r10, r6, lsl #2]
 4907              	.LVL591:
 4908              		.loc 1 1714 18 view .LVU1343
 4909 007a 1EE0     		b	.L443
 4910              	.LVL592:
 4911              	.L448:
1715:Core/test/unity.c ****         }
1716:Core/test/unity.c **** 
1717:Core/test/unity.c ****         /* if both pointers not null compare the strings */
1718:Core/test/unity.c ****         if (expd && act)
1719:Core/test/unity.c ****         {
1720:Core/test/unity.c ****             for (i = 0; expd[i] || act[i]; i++)
1721:Core/test/unity.c ****             {
1722:Core/test/unity.c ****                 if (expd[i] != act[i])
 4912              		.loc 1 1722 17 is_stmt 1 view .LVU1344
 4913              		.loc 1 1722 35 is_stmt 0 view .LVU1345
 4914 007c E15C     		ldrb	r1, [r4, r3]	@ zero_extendqisi2
 4915              		.loc 1 1722 20 view .LVU1346
 4916 007e 9142     		cmp	r1, r2
 4917 0080 07D1     		bne	.L458
1720:Core/test/unity.c ****             {
 4918              		.loc 1 1720 44 is_stmt 1 discriminator 2 view .LVU1347
1720:Core/test/unity.c ****             {
 4919              		.loc 1 1720 45 is_stmt 0 discriminator 2 view .LVU1348
 4920 0082 0133     		adds	r3, r3, #1
 4921              	.LVL593:
 4922              	.L445:
1720:Core/test/unity.c ****             {
 4923              		.loc 1 1720 25 is_stmt 1 discriminator 1 view .LVU1349
ARM GAS  C:\Users\ASUS\AppData\Local\Temp\ccstHO0r.s 			page 135


1720:Core/test/unity.c ****             {
 4924              		.loc 1 1720 29 is_stmt 0 discriminator 1 view .LVU1350
 4925 0084 EA5C     		ldrb	r2, [r5, r3]	@ zero_extendqisi2
1720:Core/test/unity.c ****             {
 4926              		.loc 1 1720 13 discriminator 1 view .LVU1351
 4927 0086 002A     		cmp	r2, #0
 4928 0088 F8D1     		bne	.L448
1720:Core/test/unity.c ****             {
 4929              		.loc 1 1720 39 discriminator 3 view .LVU1352
 4930 008a E15C     		ldrb	r1, [r4, r3]	@ zero_extendqisi2
1720:Core/test/unity.c ****             {
 4931              		.loc 1 1720 33 discriminator 3 view .LVU1353
 4932 008c 0029     		cmp	r1, #0
 4933 008e F5D1     		bne	.L448
1720:Core/test/unity.c ****             {
 4934              		.loc 1 1720 33 discriminator 3 view .LVU1354
 4935 0090 08E0     		b	.L447
 4936              	.L458:
1723:Core/test/unity.c ****                 {
1724:Core/test/unity.c ****                     Unity.CurrentTestFailed = 1;
 4937              		.loc 1 1724 21 is_stmt 1 view .LVU1355
 4938              		.loc 1 1724 45 is_stmt 0 view .LVU1356
 4939 0092 1B4B     		ldr	r3, .L462
 4940              	.LVL594:
 4941              		.loc 1 1724 45 view .LVU1357
 4942 0094 0122     		movs	r2, #1
 4943 0096 1A62     		str	r2, [r3, #32]
1725:Core/test/unity.c ****                     break;
 4944              		.loc 1 1725 21 is_stmt 1 view .LVU1358
 4945 0098 04E0     		b	.L447
 4946              	.L444:
1726:Core/test/unity.c ****                 }
1727:Core/test/unity.c ****             }
1728:Core/test/unity.c ****         }
1729:Core/test/unity.c ****         else
1730:Core/test/unity.c ****         { /* handle case of one pointers being null (if both null, test should pass) */
1731:Core/test/unity.c ****             if (expd != act)
 4947              		.loc 1 1731 13 view .LVU1359
 4948              		.loc 1 1731 16 is_stmt 0 view .LVU1360
 4949 009a A542     		cmp	r5, r4
 4950 009c 02D0     		beq	.L447
1732:Core/test/unity.c ****             {
1733:Core/test/unity.c ****                 Unity.CurrentTestFailed = 1;
 4951              		.loc 1 1733 17 is_stmt 1 view .LVU1361
 4952              		.loc 1 1733 41 is_stmt 0 view .LVU1362
 4953 009e 184B     		ldr	r3, .L462
 4954 00a0 0122     		movs	r2, #1
 4955 00a2 1A62     		str	r2, [r3, #32]
 4956              	.L447:
1734:Core/test/unity.c ****             }
1735:Core/test/unity.c ****         }
1736:Core/test/unity.c **** 
1737:Core/test/unity.c ****         if (Unity.CurrentTestFailed)
 4957              		.loc 1 1737 9 is_stmt 1 view .LVU1363
 4958              		.loc 1 1737 18 is_stmt 0 view .LVU1364
 4959 00a4 164B     		ldr	r3, .L462
 4960 00a6 1B6A     		ldr	r3, [r3, #32]
ARM GAS  C:\Users\ASUS\AppData\Local\Temp\ccstHO0r.s 			page 136


 4961              		.loc 1 1737 12 view .LVU1365
 4962 00a8 6BB9     		cbnz	r3, .L459
1738:Core/test/unity.c ****         {
1739:Core/test/unity.c ****             UnityTestResultsFailBegin(lineNumber);
1740:Core/test/unity.c ****             if (num_elements > 1)
1741:Core/test/unity.c ****             {
1742:Core/test/unity.c ****                 UnityPrint(UnityStrElement);
1743:Core/test/unity.c ****                 UnityPrintNumberUnsigned(j);
1744:Core/test/unity.c ****             }
1745:Core/test/unity.c ****             UnityPrintExpectedAndActualStrings(expd, act);
1746:Core/test/unity.c ****             UnityAddMsgIfSpecified(msg);
1747:Core/test/unity.c ****             UNITY_FAIL_AND_BAIL;
 4963              		.loc 1 1747 13 is_stmt 1 view .LVU1366
1748:Core/test/unity.c ****         }
1749:Core/test/unity.c ****     } while (++j < num_elements);
 4964              		.loc 1 1749 13 view .LVU1367
 4965              		.loc 1 1749 5 is_stmt 0 view .LVU1368
 4966 00aa 0136     		adds	r6, r6, #1
 4967              	.LVL595:
 4968              		.loc 1 1749 5 view .LVU1369
 4969 00ac B045     		cmp	r8, r6
 4970 00ae 24D9     		bls	.L436
 4971              	.LVL596:
 4972              	.L451:
1709:Core/test/unity.c ****     {
 4973              		.loc 1 1709 5 is_stmt 1 view .LVU1370
1711:Core/test/unity.c ****         if (flags == UNITY_ARRAY_TO_ARRAY)
 4974              		.loc 1 1711 9 view .LVU1371
1711:Core/test/unity.c ****         if (flags == UNITY_ARRAY_TO_ARRAY)
 4975              		.loc 1 1711 13 is_stmt 0 view .LVU1372
 4976 00b0 57F82640 		ldr	r4, [r7, r6, lsl #2]
 4977              	.LVL597:
1712:Core/test/unity.c ****         {
 4978              		.loc 1 1712 9 is_stmt 1 view .LVU1373
1712:Core/test/unity.c ****         {
 4979              		.loc 1 1712 12 is_stmt 0 view .LVU1374
 4980 00b4 B9F1010F 		cmp	r9, #1
 4981 00b8 DDD0     		beq	.L460
 4982              	.L443:
1718:Core/test/unity.c ****         {
 4983              		.loc 1 1718 9 is_stmt 1 view .LVU1375
1718:Core/test/unity.c ****         {
 4984              		.loc 1 1718 12 is_stmt 0 view .LVU1376
 4985 00ba 002D     		cmp	r5, #0
 4986 00bc EDD0     		beq	.L444
1718:Core/test/unity.c ****         {
 4987              		.loc 1 1718 18 discriminator 1 view .LVU1377
 4988 00be 002C     		cmp	r4, #0
 4989 00c0 EBD0     		beq	.L444
1720:Core/test/unity.c ****             {
 4990              		.loc 1 1720 20 view .LVU1378
 4991 00c2 5B46     		mov	r3, fp
 4992 00c4 DEE7     		b	.L445
 4993              	.L459:
1739:Core/test/unity.c ****             if (num_elements > 1)
 4994              		.loc 1 1739 13 is_stmt 1 view .LVU1379
 4995 00c6 0C98     		ldr	r0, [sp, #48]
ARM GAS  C:\Users\ASUS\AppData\Local\Temp\ccstHO0r.s 			page 137


 4996 00c8 FFF7FEFF 		bl	UnityTestResultsFailBegin
 4997              	.LVL598:
1740:Core/test/unity.c ****             {
 4998              		.loc 1 1740 13 view .LVU1380
1740:Core/test/unity.c ****             {
 4999              		.loc 1 1740 16 is_stmt 0 view .LVU1381
 5000 00cc B8F1010F 		cmp	r8, #1
 5001 00d0 0CD8     		bhi	.L461
 5002              	.L450:
1745:Core/test/unity.c ****             UnityAddMsgIfSpecified(msg);
 5003              		.loc 1 1745 13 is_stmt 1 view .LVU1382
 5004 00d2 2146     		mov	r1, r4
 5005 00d4 2846     		mov	r0, r5
 5006 00d6 FFF7FEFF 		bl	UnityPrintExpectedAndActualStrings
 5007              	.LVL599:
1746:Core/test/unity.c ****             UNITY_FAIL_AND_BAIL;
 5008              		.loc 1 1746 13 view .LVU1383
 5009 00da 0198     		ldr	r0, [sp, #4]
 5010 00dc FFF7FEFF 		bl	UnityAddMsgIfSpecified
 5011              	.LVL600:
1747:Core/test/unity.c ****         }
 5012              		.loc 1 1747 13 view .LVU1384
1747:Core/test/unity.c ****         }
 5013              		.loc 1 1747 13 view .LVU1385
 5014 00e0 0748     		ldr	r0, .L462
 5015 00e2 0121     		movs	r1, #1
 5016 00e4 0162     		str	r1, [r0, #32]
1747:Core/test/unity.c ****         }
 5017              		.loc 1 1747 13 view .LVU1386
1747:Core/test/unity.c ****         }
 5018              		.loc 1 1747 13 view .LVU1387
 5019 00e6 2830     		adds	r0, r0, #40
 5020 00e8 FFF7FEFF 		bl	longjmp
 5021              	.LVL601:
 5022              	.L461:
1742:Core/test/unity.c ****                 UnityPrintNumberUnsigned(j);
 5023              		.loc 1 1742 17 view .LVU1388
 5024 00ec 0748     		ldr	r0, .L462+12
 5025 00ee FFF7FEFF 		bl	UnityPrint
 5026              	.LVL602:
1743:Core/test/unity.c ****             }
 5027              		.loc 1 1743 17 view .LVU1389
 5028 00f2 3046     		mov	r0, r6
 5029 00f4 FFF7FEFF 		bl	UnityPrintNumberUnsigned
 5030              	.LVL603:
 5031 00f8 EBE7     		b	.L450
 5032              	.LVL604:
 5033              	.L436:
1750:Core/test/unity.c **** }
 5034              		.loc 1 1750 1 is_stmt 0 view .LVU1390
 5035 00fa 03B0     		add	sp, sp, #12
 5036              	.LCFI59:
 5037              		.cfi_def_cfa_offset 36
 5038              		@ sp needed
 5039 00fc BDE8F08F 		pop	{r4, r5, r6, r7, r8, r9, r10, fp, pc}
 5040              	.LVL605:
 5041              	.L463:
ARM GAS  C:\Users\ASUS\AppData\Local\Temp\ccstHO0r.s 			page 138


 5042              		.loc 1 1750 1 view .LVU1391
 5043              		.align	2
 5044              	.L462:
 5045 0100 00000000 		.word	.LANCHOR0
 5046 0104 28000000 		.word	.LANCHOR0+40
 5047 0108 00000000 		.word	.LANCHOR15
 5048 010c 00000000 		.word	.LANCHOR16
 5049              		.cfi_endproc
 5050              	.LFE167:
 5052              		.section	.text.UnityAssertEqualMemory,"ax",%progbits
 5053              		.align	1
 5054              		.global	UnityAssertEqualMemory
 5055              		.syntax unified
 5056              		.thumb
 5057              		.thumb_func
 5058              		.fpu fpv4-sp-d16
 5060              	UnityAssertEqualMemory:
 5061              	.LVL606:
 5062              	.LFB168:
1751:Core/test/unity.c **** 
1752:Core/test/unity.c **** /*-----------------------------------------------*/
1753:Core/test/unity.c **** void UnityAssertEqualMemory(UNITY_INTERNAL_PTR expected,
1754:Core/test/unity.c ****                             UNITY_INTERNAL_PTR actual,
1755:Core/test/unity.c ****                             const UNITY_UINT32 length,
1756:Core/test/unity.c ****                             const UNITY_UINT32 num_elements,
1757:Core/test/unity.c ****                             const char* msg,
1758:Core/test/unity.c ****                             const UNITY_LINE_TYPE lineNumber,
1759:Core/test/unity.c ****                             const UNITY_FLAGS_T flags)
1760:Core/test/unity.c **** {
 5063              		.loc 1 1760 1 is_stmt 1 view -0
 5064              		.cfi_startproc
 5065              		@ args = 12, pretend = 0, frame = 0
 5066              		@ frame_needed = 0, uses_anonymous_args = 0
 5067              		.loc 1 1760 1 is_stmt 0 view .LVU1393
 5068 0000 2DE9F84F 		push	{r3, r4, r5, r6, r7, r8, r9, r10, fp, lr}
 5069              	.LCFI60:
 5070              		.cfi_def_cfa_offset 40
 5071              		.cfi_offset 3, -40
 5072              		.cfi_offset 4, -36
 5073              		.cfi_offset 5, -32
 5074              		.cfi_offset 6, -28
 5075              		.cfi_offset 7, -24
 5076              		.cfi_offset 8, -20
 5077              		.cfi_offset 9, -16
 5078              		.cfi_offset 10, -12
 5079              		.cfi_offset 11, -8
 5080              		.cfi_offset 14, -4
 5081 0004 9B46     		mov	fp, r3
 5082 0006 9DF83090 		ldrb	r9, [sp, #48]	@ zero_extendqisi2
1761:Core/test/unity.c ****     UNITY_PTR_ATTRIBUTE const unsigned char* ptr_exp = (UNITY_PTR_ATTRIBUTE const unsigned char*)ex
 5083              		.loc 1 1761 25 is_stmt 1 view .LVU1394
 5084              	.LVL607:
1762:Core/test/unity.c ****     UNITY_PTR_ATTRIBUTE const unsigned char* ptr_act = (UNITY_PTR_ATTRIBUTE const unsigned char*)ac
 5085              		.loc 1 1762 25 view .LVU1395
1763:Core/test/unity.c ****     UNITY_UINT32 elements = num_elements;
 5086              		.loc 1 1763 5 view .LVU1396
1764:Core/test/unity.c ****     UNITY_UINT32 bytes;
ARM GAS  C:\Users\ASUS\AppData\Local\Temp\ccstHO0r.s 			page 139


 5087              		.loc 1 1764 5 view .LVU1397
1765:Core/test/unity.c **** 
1766:Core/test/unity.c ****     RETURN_IF_FAIL_OR_IGNORE;
 5088              		.loc 1 1766 5 view .LVU1398
 5089              		.loc 1 1766 5 view .LVU1399
 5090 000a 424B     		ldr	r3, .L486
 5091              	.LVL608:
 5092              		.loc 1 1766 5 is_stmt 0 view .LVU1400
 5093 000c 1B6A     		ldr	r3, [r3, #32]
 5094 000e 9BB9     		cbnz	r3, .L465
 5095 0010 8246     		mov	r10, r0
 5096 0012 0D46     		mov	r5, r1
 5097 0014 9046     		mov	r8, r2
 5098              		.loc 1 1766 5 discriminator 2 view .LVU1401
 5099 0016 3F4B     		ldr	r3, .L486
 5100 0018 5B6A     		ldr	r3, [r3, #36]
 5101 001a 6BB9     		cbnz	r3, .L465
 5102              		.loc 1 1766 5 is_stmt 1 discriminator 4 view .LVU1402
1767:Core/test/unity.c **** 
1768:Core/test/unity.c ****     if (elements == 0)
 5103              		.loc 1 1768 5 discriminator 4 view .LVU1403
 5104              		.loc 1 1768 8 is_stmt 0 discriminator 4 view .LVU1404
 5105 001c BBF1000F 		cmp	fp, #0
 5106 0020 0ED0     		beq	.L480
1769:Core/test/unity.c ****     {
1770:Core/test/unity.c **** #ifdef UNITY_COMPARE_PTRS_ON_ZERO_ARRAY
1771:Core/test/unity.c ****         UNITY_TEST_ASSERT_EQUAL_PTR(expected, actual, lineNumber, msg);
1772:Core/test/unity.c **** #else
1773:Core/test/unity.c ****         UnityPrintPointlessAndBail();
 5107              		.loc 1 1773 9 is_stmt 1 view .LVU1405
 5108              		.loc 1 1773 9 view .LVU1406
1774:Core/test/unity.c **** #endif
1775:Core/test/unity.c ****     }
1776:Core/test/unity.c ****     if (length == 0)
 5109              		.loc 1 1776 5 view .LVU1407
 5110              		.loc 1 1776 8 is_stmt 0 view .LVU1408
 5111 0022 E2B1     		cbz	r2, .L481
1777:Core/test/unity.c ****     {
1778:Core/test/unity.c ****         UnityPrintPointlessAndBail();
 5112              		.loc 1 1778 9 is_stmt 1 view .LVU1409
 5113              		.loc 1 1778 9 view .LVU1410
1779:Core/test/unity.c ****     }
1780:Core/test/unity.c **** 
1781:Core/test/unity.c ****     if (expected == actual)
 5114              		.loc 1 1781 5 view .LVU1411
 5115              		.loc 1 1781 8 is_stmt 0 view .LVU1412
 5116 0024 8842     		cmp	r0, r1
 5117 0026 73D0     		beq	.L464
1782:Core/test/unity.c ****     {
1783:Core/test/unity.c ****         return; /* Both are NULL or same pointer */
1784:Core/test/unity.c ****     }
1785:Core/test/unity.c **** 
1786:Core/test/unity.c ****     if (UnityIsOneArrayNull(expected, actual, lineNumber, msg))
 5118              		.loc 1 1786 5 is_stmt 1 view .LVU1413
 5119              		.loc 1 1786 9 is_stmt 0 view .LVU1414
 5120 0028 0A9B     		ldr	r3, [sp, #40]
 5121 002a 0B9A     		ldr	r2, [sp, #44]
ARM GAS  C:\Users\ASUS\AppData\Local\Temp\ccstHO0r.s 			page 140


 5122              	.LVL609:
 5123              		.loc 1 1786 9 view .LVU1415
 5124 002c FFF7FEFF 		bl	UnityIsOneArrayNull
 5125              	.LVL610:
 5126              		.loc 1 1786 8 view .LVU1416
 5127 0030 20BB     		cbnz	r0, .L482
1763:Core/test/unity.c ****     UNITY_UINT32 bytes;
 5128              		.loc 1 1763 18 view .LVU1417
 5129 0032 5B46     		mov	r3, fp
1761:Core/test/unity.c ****     UNITY_PTR_ATTRIBUTE const unsigned char* ptr_act = (UNITY_PTR_ATTRIBUTE const unsigned char*)ac
 5130              		.loc 1 1761 46 view .LVU1418
 5131 0034 5446     		mov	r4, r10
 5132 0036 5DE0     		b	.L470
 5133              	.LVL611:
 5134              	.L465:
1766:Core/test/unity.c **** 
 5135              		.loc 1 1766 5 is_stmt 1 discriminator 3 view .LVU1419
 5136 0038 0121     		movs	r1, #1
 5137              	.LVL612:
1766:Core/test/unity.c **** 
 5138              		.loc 1 1766 5 is_stmt 0 discriminator 3 view .LVU1420
 5139 003a 3748     		ldr	r0, .L486+4
 5140              	.LVL613:
1766:Core/test/unity.c **** 
 5141              		.loc 1 1766 5 discriminator 3 view .LVU1421
 5142 003c FFF7FEFF 		bl	longjmp
 5143              	.LVL614:
 5144              	.L480:
1773:Core/test/unity.c **** #endif
 5145              		.loc 1 1773 9 is_stmt 1 view .LVU1422
1773:Core/test/unity.c **** #endif
 5146              		.loc 1 1773 9 view .LVU1423
 5147 0040 0B98     		ldr	r0, [sp, #44]
 5148              	.LVL615:
1773:Core/test/unity.c **** #endif
 5149              		.loc 1 1773 9 is_stmt 0 view .LVU1424
 5150 0042 FFF7FEFF 		bl	UnityTestResultsFailBegin
 5151              	.LVL616:
1773:Core/test/unity.c **** #endif
 5152              		.loc 1 1773 9 is_stmt 1 view .LVU1425
 5153 0046 3548     		ldr	r0, .L486+8
 5154 0048 FFF7FEFF 		bl	UnityPrint
 5155              	.LVL617:
1773:Core/test/unity.c **** #endif
 5156              		.loc 1 1773 9 view .LVU1426
 5157 004c 0A98     		ldr	r0, [sp, #40]
 5158 004e FFF7FEFF 		bl	UnityAddMsgIfSpecified
 5159              	.LVL618:
1773:Core/test/unity.c **** #endif
 5160              		.loc 1 1773 9 view .LVU1427
1773:Core/test/unity.c **** #endif
 5161              		.loc 1 1773 9 view .LVU1428
 5162 0052 3048     		ldr	r0, .L486
 5163 0054 0121     		movs	r1, #1
 5164 0056 0162     		str	r1, [r0, #32]
1773:Core/test/unity.c **** #endif
 5165              		.loc 1 1773 9 view .LVU1429
ARM GAS  C:\Users\ASUS\AppData\Local\Temp\ccstHO0r.s 			page 141


1773:Core/test/unity.c **** #endif
 5166              		.loc 1 1773 9 view .LVU1430
 5167 0058 2830     		adds	r0, r0, #40
 5168 005a FFF7FEFF 		bl	longjmp
 5169              	.LVL619:
 5170              	.L481:
1778:Core/test/unity.c ****     }
 5171              		.loc 1 1778 9 view .LVU1431
1778:Core/test/unity.c ****     }
 5172              		.loc 1 1778 9 view .LVU1432
 5173 005e 0B98     		ldr	r0, [sp, #44]
 5174              	.LVL620:
1778:Core/test/unity.c ****     }
 5175              		.loc 1 1778 9 is_stmt 0 view .LVU1433
 5176 0060 FFF7FEFF 		bl	UnityTestResultsFailBegin
 5177              	.LVL621:
1778:Core/test/unity.c ****     }
 5178              		.loc 1 1778 9 is_stmt 1 view .LVU1434
 5179 0064 2D48     		ldr	r0, .L486+8
 5180 0066 FFF7FEFF 		bl	UnityPrint
 5181              	.LVL622:
1778:Core/test/unity.c ****     }
 5182              		.loc 1 1778 9 view .LVU1435
 5183 006a 0A98     		ldr	r0, [sp, #40]
 5184 006c FFF7FEFF 		bl	UnityAddMsgIfSpecified
 5185              	.LVL623:
1778:Core/test/unity.c ****     }
 5186              		.loc 1 1778 9 view .LVU1436
1778:Core/test/unity.c ****     }
 5187              		.loc 1 1778 9 view .LVU1437
 5188 0070 2848     		ldr	r0, .L486
 5189 0072 0121     		movs	r1, #1
 5190 0074 0162     		str	r1, [r0, #32]
1778:Core/test/unity.c ****     }
 5191              		.loc 1 1778 9 view .LVU1438
1778:Core/test/unity.c ****     }
 5192              		.loc 1 1778 9 view .LVU1439
 5193 0076 2830     		adds	r0, r0, #40
 5194 0078 FFF7FEFF 		bl	longjmp
 5195              	.LVL624:
 5196              	.L482:
1787:Core/test/unity.c ****     {
1788:Core/test/unity.c ****         UNITY_FAIL_AND_BAIL;
 5197              		.loc 1 1788 9 view .LVU1440
 5198              		.loc 1 1788 9 view .LVU1441
 5199 007c 2548     		ldr	r0, .L486
 5200 007e 0121     		movs	r1, #1
 5201 0080 0162     		str	r1, [r0, #32]
 5202              		.loc 1 1788 9 view .LVU1442
 5203              		.loc 1 1788 9 view .LVU1443
 5204 0082 2830     		adds	r0, r0, #40
 5205 0084 FFF7FEFF 		bl	longjmp
 5206              	.LVL625:
 5207              	.L485:
1789:Core/test/unity.c ****     }
1790:Core/test/unity.c **** 
1791:Core/test/unity.c ****     while (elements--)
ARM GAS  C:\Users\ASUS\AppData\Local\Temp\ccstHO0r.s 			page 142


1792:Core/test/unity.c ****     {
1793:Core/test/unity.c ****         bytes = length;
1794:Core/test/unity.c ****         while (bytes--)
1795:Core/test/unity.c ****         {
1796:Core/test/unity.c ****             if (*ptr_exp != *ptr_act)
1797:Core/test/unity.c ****             {
1798:Core/test/unity.c ****                 UnityTestResultsFailBegin(lineNumber);
 5208              		.loc 1 1798 17 view .LVU1444
 5209 0088 0B98     		ldr	r0, [sp, #44]
 5210 008a FFF7FEFF 		bl	UnityTestResultsFailBegin
 5211              	.LVL626:
1799:Core/test/unity.c ****                 UnityPrint(UnityStrMemory);
 5212              		.loc 1 1799 17 view .LVU1445
 5213 008e 2448     		ldr	r0, .L486+12
 5214 0090 FFF7FEFF 		bl	UnityPrint
 5215              	.LVL627:
1800:Core/test/unity.c ****                 if (num_elements > 1)
 5216              		.loc 1 1800 17 view .LVU1446
 5217              		.loc 1 1800 20 is_stmt 0 view .LVU1447
 5218 0094 BBF1010F 		cmp	fp, #1
 5219 0098 1ED8     		bhi	.L483
 5220              	.L472:
1801:Core/test/unity.c ****                 {
1802:Core/test/unity.c ****                     UnityPrint(UnityStrElement);
1803:Core/test/unity.c ****                     UnityPrintNumberUnsigned(num_elements - elements - 1);
1804:Core/test/unity.c ****                 }
1805:Core/test/unity.c ****                 UnityPrint(UnityStrByte);
 5221              		.loc 1 1805 17 is_stmt 1 view .LVU1448
 5222 009a 2248     		ldr	r0, .L486+16
 5223 009c FFF7FEFF 		bl	UnityPrint
 5224              	.LVL628:
1806:Core/test/unity.c ****                 UnityPrintNumberUnsigned(length - bytes - 1);
 5225              		.loc 1 1806 17 view .LVU1449
 5226              		.loc 1 1806 49 is_stmt 0 view .LVU1450
 5227 00a0 A8EB0600 		sub	r0, r8, r6
 5228              		.loc 1 1806 17 view .LVU1451
 5229 00a4 0138     		subs	r0, r0, #1
 5230 00a6 FFF7FEFF 		bl	UnityPrintNumberUnsigned
 5231              	.LVL629:
1807:Core/test/unity.c ****                 UnityPrint(UnityStrExpected);
 5232              		.loc 1 1807 17 is_stmt 1 view .LVU1452
 5233 00aa 1F48     		ldr	r0, .L486+20
 5234 00ac FFF7FEFF 		bl	UnityPrint
 5235              	.LVL630:
1808:Core/test/unity.c ****                 UnityPrintNumberByStyle(*ptr_exp, UNITY_DISPLAY_STYLE_HEX8);
 5236              		.loc 1 1808 17 view .LVU1453
 5237 00b0 4121     		movs	r1, #65
 5238 00b2 2078     		ldrb	r0, [r4]	@ zero_extendqisi2
 5239 00b4 FFF7FEFF 		bl	UnityPrintNumberByStyle
 5240              	.LVL631:
1809:Core/test/unity.c ****                 UnityPrint(UnityStrWas);
 5241              		.loc 1 1809 17 view .LVU1454
 5242 00b8 1C48     		ldr	r0, .L486+24
 5243 00ba FFF7FEFF 		bl	UnityPrint
 5244              	.LVL632:
1810:Core/test/unity.c ****                 UnityPrintNumberByStyle(*ptr_act, UNITY_DISPLAY_STYLE_HEX8);
 5245              		.loc 1 1810 17 view .LVU1455
ARM GAS  C:\Users\ASUS\AppData\Local\Temp\ccstHO0r.s 			page 143


 5246 00be 4121     		movs	r1, #65
 5247 00c0 2878     		ldrb	r0, [r5]	@ zero_extendqisi2
 5248 00c2 FFF7FEFF 		bl	UnityPrintNumberByStyle
 5249              	.LVL633:
1811:Core/test/unity.c ****                 UnityAddMsgIfSpecified(msg);
 5250              		.loc 1 1811 17 view .LVU1456
 5251 00c6 0A98     		ldr	r0, [sp, #40]
 5252 00c8 FFF7FEFF 		bl	UnityAddMsgIfSpecified
 5253              	.LVL634:
1812:Core/test/unity.c ****                 UNITY_FAIL_AND_BAIL;
 5254              		.loc 1 1812 17 view .LVU1457
 5255              		.loc 1 1812 17 view .LVU1458
 5256 00cc 1148     		ldr	r0, .L486
 5257 00ce 0121     		movs	r1, #1
 5258 00d0 0162     		str	r1, [r0, #32]
 5259              		.loc 1 1812 17 view .LVU1459
 5260              		.loc 1 1812 17 view .LVU1460
 5261 00d2 2830     		adds	r0, r0, #40
 5262 00d4 FFF7FEFF 		bl	longjmp
 5263              	.LVL635:
 5264              	.L483:
1802:Core/test/unity.c ****                     UnityPrintNumberUnsigned(num_elements - elements - 1);
 5265              		.loc 1 1802 21 view .LVU1461
 5266 00d8 1548     		ldr	r0, .L486+28
 5267 00da FFF7FEFF 		bl	UnityPrint
 5268              	.LVL636:
1803:Core/test/unity.c ****                 }
 5269              		.loc 1 1803 21 view .LVU1462
1803:Core/test/unity.c ****                 }
 5270              		.loc 1 1803 59 is_stmt 0 view .LVU1463
 5271 00de ABEB0700 		sub	r0, fp, r7
1803:Core/test/unity.c ****                 }
 5272              		.loc 1 1803 21 view .LVU1464
 5273 00e2 0138     		subs	r0, r0, #1
 5274 00e4 FFF7FEFF 		bl	UnityPrintNumberUnsigned
 5275              	.LVL637:
 5276 00e8 D7E7     		b	.L472
 5277              	.L484:
1813:Core/test/unity.c ****             }
1814:Core/test/unity.c ****             ptr_exp++;
1815:Core/test/unity.c ****             ptr_act++;
1816:Core/test/unity.c ****         }
1817:Core/test/unity.c ****         if (flags == UNITY_ARRAY_TO_VAL)
 5278              		.loc 1 1817 9 is_stmt 1 view .LVU1465
 5279              		.loc 1 1817 12 is_stmt 0 view .LVU1466
 5280 00ea B9F1000F 		cmp	r9, #0
 5281 00ee 00D1     		bne	.L474
1818:Core/test/unity.c ****         {
1819:Core/test/unity.c ****             ptr_exp = (UNITY_PTR_ATTRIBUTE const unsigned char*)expected;
 5282              		.loc 1 1819 21 view .LVU1467
 5283 00f0 5446     		mov	r4, r10
 5284              	.LVL638:
 5285              	.L474:
 5286              		.loc 1 1819 21 view .LVU1468
 5287 00f2 3B46     		mov	r3, r7
 5288              	.LVL639:
 5289              	.L470:
ARM GAS  C:\Users\ASUS\AppData\Local\Temp\ccstHO0r.s 			page 144


1791:Core/test/unity.c ****     {
 5290              		.loc 1 1791 11 is_stmt 1 view .LVU1469
1791:Core/test/unity.c ****     {
 5291              		.loc 1 1791 20 is_stmt 0 view .LVU1470
 5292 00f4 5F1E     		subs	r7, r3, #1
 5293              	.LVL640:
1791:Core/test/unity.c ****     {
 5294              		.loc 1 1791 11 view .LVU1471
 5295 00f6 5BB1     		cbz	r3, .L464
1793:Core/test/unity.c ****         while (bytes--)
 5296              		.loc 1 1793 15 view .LVU1472
 5297 00f8 4346     		mov	r3, r8
 5298              	.L475:
 5299              	.LVL641:
1794:Core/test/unity.c ****         {
 5300              		.loc 1 1794 15 is_stmt 1 view .LVU1473
1794:Core/test/unity.c ****         {
 5301              		.loc 1 1794 21 is_stmt 0 view .LVU1474
 5302 00fa 5E1E     		subs	r6, r3, #1
 5303              	.LVL642:
1794:Core/test/unity.c ****         {
 5304              		.loc 1 1794 15 view .LVU1475
 5305 00fc 002B     		cmp	r3, #0
 5306 00fe F4D0     		beq	.L484
1796:Core/test/unity.c ****             {
 5307              		.loc 1 1796 13 is_stmt 1 view .LVU1476
1796:Core/test/unity.c ****             {
 5308              		.loc 1 1796 17 is_stmt 0 view .LVU1477
 5309 0100 2278     		ldrb	r2, [r4]	@ zero_extendqisi2
1796:Core/test/unity.c ****             {
 5310              		.loc 1 1796 29 view .LVU1478
 5311 0102 2B78     		ldrb	r3, [r5]	@ zero_extendqisi2
1796:Core/test/unity.c ****             {
 5312              		.loc 1 1796 16 view .LVU1479
 5313 0104 9A42     		cmp	r2, r3
 5314 0106 BFD1     		bne	.L485
1812:Core/test/unity.c ****             }
 5315              		.loc 1 1812 17 is_stmt 1 view .LVU1480
1814:Core/test/unity.c ****             ptr_act++;
 5316              		.loc 1 1814 13 view .LVU1481
1814:Core/test/unity.c ****             ptr_act++;
 5317              		.loc 1 1814 20 is_stmt 0 view .LVU1482
 5318 0108 0134     		adds	r4, r4, #1
 5319              	.LVL643:
1815:Core/test/unity.c ****         }
 5320              		.loc 1 1815 13 is_stmt 1 view .LVU1483
1815:Core/test/unity.c ****         }
 5321              		.loc 1 1815 20 is_stmt 0 view .LVU1484
 5322 010a 0135     		adds	r5, r5, #1
 5323              	.LVL644:
1794:Core/test/unity.c ****         {
 5324              		.loc 1 1794 21 view .LVU1485
 5325 010c 3346     		mov	r3, r6
 5326 010e F4E7     		b	.L475
 5327              	.LVL645:
 5328              	.L464:
1820:Core/test/unity.c ****         }
ARM GAS  C:\Users\ASUS\AppData\Local\Temp\ccstHO0r.s 			page 145


1821:Core/test/unity.c ****     }
1822:Core/test/unity.c **** }
 5329              		.loc 1 1822 1 view .LVU1486
 5330 0110 BDE8F88F 		pop	{r3, r4, r5, r6, r7, r8, r9, r10, fp, pc}
 5331              	.LVL646:
 5332              	.L487:
 5333              		.loc 1 1822 1 view .LVU1487
 5334              		.align	2
 5335              	.L486:
 5336 0114 00000000 		.word	.LANCHOR0
 5337 0118 28000000 		.word	.LANCHOR0+40
 5338 011c 00000000 		.word	.LANCHOR15
 5339 0120 00000000 		.word	.LANCHOR21
 5340 0124 00000000 		.word	.LANCHOR22
 5341 0128 00000000 		.word	.LANCHOR7
 5342 012c 00000000 		.word	.LANCHOR9
 5343 0130 00000000 		.word	.LANCHOR16
 5344              		.cfi_endproc
 5345              	.LFE168:
 5347              		.section	.text.UnityNumToPtr,"ax",%progbits
 5348              		.align	1
 5349              		.global	UnityNumToPtr
 5350              		.syntax unified
 5351              		.thumb
 5352              		.thumb_func
 5353              		.fpu fpv4-sp-d16
 5355              	UnityNumToPtr:
 5356              	.LVL647:
 5357              	.LFB169:
1823:Core/test/unity.c **** 
1824:Core/test/unity.c **** /*-----------------------------------------------*/
1825:Core/test/unity.c **** 
1826:Core/test/unity.c **** static union
1827:Core/test/unity.c **** {
1828:Core/test/unity.c ****     UNITY_INT8 i8;
1829:Core/test/unity.c ****     UNITY_INT16 i16;
1830:Core/test/unity.c ****     UNITY_INT32 i32;
1831:Core/test/unity.c **** #ifdef UNITY_SUPPORT_64
1832:Core/test/unity.c ****     UNITY_INT64 i64;
1833:Core/test/unity.c **** #endif
1834:Core/test/unity.c **** #ifndef UNITY_EXCLUDE_FLOAT
1835:Core/test/unity.c ****     float f;
1836:Core/test/unity.c **** #endif
1837:Core/test/unity.c **** #ifndef UNITY_EXCLUDE_DOUBLE
1838:Core/test/unity.c ****     double d;
1839:Core/test/unity.c **** #endif
1840:Core/test/unity.c **** } UnityQuickCompare;
1841:Core/test/unity.c **** 
1842:Core/test/unity.c **** UNITY_INTERNAL_PTR UnityNumToPtr(const UNITY_INT num, const UNITY_UINT8 size)
1843:Core/test/unity.c **** {
 5358              		.loc 1 1843 1 is_stmt 1 view -0
 5359              		.cfi_startproc
 5360              		@ args = 0, pretend = 0, frame = 0
 5361              		@ frame_needed = 0, uses_anonymous_args = 0
 5362              		@ link register save eliminated.
1844:Core/test/unity.c ****     switch(size)
 5363              		.loc 1 1844 5 view .LVU1489
ARM GAS  C:\Users\ASUS\AppData\Local\Temp\ccstHO0r.s 			page 146


 5364 0000 0129     		cmp	r1, #1
 5365 0002 04D0     		beq	.L489
 5366 0004 0229     		cmp	r1, #2
 5367 0006 06D0     		beq	.L490
1845:Core/test/unity.c ****     {
1846:Core/test/unity.c ****         case 1:
1847:Core/test/unity.c ****             UnityQuickCompare.i8 = (UNITY_INT8)num;
1848:Core/test/unity.c ****             return (UNITY_INTERNAL_PTR)(&UnityQuickCompare.i8);
1849:Core/test/unity.c **** 
1850:Core/test/unity.c ****         case 2:
1851:Core/test/unity.c ****             UnityQuickCompare.i16 = (UNITY_INT16)num;
1852:Core/test/unity.c ****             return (UNITY_INTERNAL_PTR)(&UnityQuickCompare.i16);
1853:Core/test/unity.c **** 
1854:Core/test/unity.c **** #ifdef UNITY_SUPPORT_64
1855:Core/test/unity.c ****         case 8:
1856:Core/test/unity.c ****             UnityQuickCompare.i64 = (UNITY_INT64)num;
1857:Core/test/unity.c ****             return (UNITY_INTERNAL_PTR)(&UnityQuickCompare.i64);
1858:Core/test/unity.c **** #endif
1859:Core/test/unity.c **** 
1860:Core/test/unity.c ****         default: /* 4 bytes */
1861:Core/test/unity.c ****             UnityQuickCompare.i32 = (UNITY_INT32)num;
 5368              		.loc 1 1861 13 view .LVU1490
 5369              		.loc 1 1861 35 is_stmt 0 view .LVU1491
 5370 0008 044B     		ldr	r3, .L494
 5371 000a 1860     		str	r0, [r3]
1862:Core/test/unity.c ****             return (UNITY_INTERNAL_PTR)(&UnityQuickCompare.i32);
 5372              		.loc 1 1862 13 is_stmt 1 view .LVU1492
 5373              		.loc 1 1862 20 is_stmt 0 view .LVU1493
 5374 000c 01E0     		b	.L492
 5375              	.L489:
1847:Core/test/unity.c ****             return (UNITY_INTERNAL_PTR)(&UnityQuickCompare.i8);
 5376              		.loc 1 1847 13 is_stmt 1 view .LVU1494
1847:Core/test/unity.c ****             return (UNITY_INTERNAL_PTR)(&UnityQuickCompare.i8);
 5377              		.loc 1 1847 34 is_stmt 0 view .LVU1495
 5378 000e 034B     		ldr	r3, .L494
 5379 0010 1870     		strb	r0, [r3]
1848:Core/test/unity.c **** 
 5380              		.loc 1 1848 13 is_stmt 1 view .LVU1496
 5381              	.L492:
1863:Core/test/unity.c ****     }
1864:Core/test/unity.c **** }
 5382              		.loc 1 1864 1 is_stmt 0 view .LVU1497
 5383 0012 0248     		ldr	r0, .L494
 5384              	.LVL648:
 5385              		.loc 1 1864 1 view .LVU1498
 5386 0014 7047     		bx	lr
 5387              	.LVL649:
 5388              	.L490:
1851:Core/test/unity.c ****             return (UNITY_INTERNAL_PTR)(&UnityQuickCompare.i16);
 5389              		.loc 1 1851 13 is_stmt 1 view .LVU1499
1851:Core/test/unity.c ****             return (UNITY_INTERNAL_PTR)(&UnityQuickCompare.i16);
 5390              		.loc 1 1851 35 is_stmt 0 view .LVU1500
 5391 0016 014B     		ldr	r3, .L494
 5392 0018 1880     		strh	r0, [r3]	@ movhi
1852:Core/test/unity.c **** 
 5393              		.loc 1 1852 13 is_stmt 1 view .LVU1501
1852:Core/test/unity.c **** 
ARM GAS  C:\Users\ASUS\AppData\Local\Temp\ccstHO0r.s 			page 147


 5394              		.loc 1 1852 20 is_stmt 0 view .LVU1502
 5395 001a FAE7     		b	.L492
 5396              	.L495:
 5397              		.align	2
 5398              	.L494:
 5399 001c 00000000 		.word	.LANCHOR23
 5400              		.cfi_endproc
 5401              	.LFE169:
 5403              		.section	.text.UnityFloatToPtr,"ax",%progbits
 5404              		.align	1
 5405              		.global	UnityFloatToPtr
 5406              		.syntax unified
 5407              		.thumb
 5408              		.thumb_func
 5409              		.fpu fpv4-sp-d16
 5411              	UnityFloatToPtr:
 5412              	.LVL650:
 5413              	.LFB170:
1865:Core/test/unity.c **** 
1866:Core/test/unity.c **** #ifndef UNITY_EXCLUDE_FLOAT
1867:Core/test/unity.c **** /*-----------------------------------------------*/
1868:Core/test/unity.c **** UNITY_INTERNAL_PTR UnityFloatToPtr(const float num)
1869:Core/test/unity.c **** {
 5414              		.loc 1 1869 1 is_stmt 1 view -0
 5415              		.cfi_startproc
 5416              		@ args = 0, pretend = 0, frame = 0
 5417              		@ frame_needed = 0, uses_anonymous_args = 0
 5418              		@ link register save eliminated.
1870:Core/test/unity.c ****     UnityQuickCompare.f = num;
 5419              		.loc 1 1870 5 view .LVU1504
 5420              		.loc 1 1870 25 is_stmt 0 view .LVU1505
 5421 0000 0148     		ldr	r0, .L497
 5422 0002 80ED000A 		vstr.32	s0, [r0]
1871:Core/test/unity.c ****     return (UNITY_INTERNAL_PTR)(&UnityQuickCompare.f);
 5423              		.loc 1 1871 5 is_stmt 1 view .LVU1506
1872:Core/test/unity.c **** }
 5424              		.loc 1 1872 1 is_stmt 0 view .LVU1507
 5425 0006 7047     		bx	lr
 5426              	.L498:
 5427              		.align	2
 5428              	.L497:
 5429 0008 00000000 		.word	.LANCHOR23
 5430              		.cfi_endproc
 5431              	.LFE170:
 5433              		.section	.text.UnityFail,"ax",%progbits
 5434              		.align	1
 5435              		.global	UnityFail
 5436              		.syntax unified
 5437              		.thumb
 5438              		.thumb_func
 5439              		.fpu fpv4-sp-d16
 5441              	UnityFail:
 5442              	.LVL651:
 5443              	.LFB171:
1873:Core/test/unity.c **** #endif
1874:Core/test/unity.c **** 
1875:Core/test/unity.c **** #ifndef UNITY_EXCLUDE_DOUBLE
ARM GAS  C:\Users\ASUS\AppData\Local\Temp\ccstHO0r.s 			page 148


1876:Core/test/unity.c **** /*-----------------------------------------------*/
1877:Core/test/unity.c **** UNITY_INTERNAL_PTR UnityDoubleToPtr(const double num)
1878:Core/test/unity.c **** {
1879:Core/test/unity.c ****     UnityQuickCompare.d = num;
1880:Core/test/unity.c ****     return (UNITY_INTERNAL_PTR)(&UnityQuickCompare.d);
1881:Core/test/unity.c **** }
1882:Core/test/unity.c **** #endif
1883:Core/test/unity.c **** 
1884:Core/test/unity.c **** #ifdef UNITY_INCLUDE_PRINT_FORMATTED
1885:Core/test/unity.c **** 
1886:Core/test/unity.c **** /*-----------------------------------------------
1887:Core/test/unity.c ****  * printf length modifier helpers
1888:Core/test/unity.c ****  *-----------------------------------------------*/
1889:Core/test/unity.c **** 
1890:Core/test/unity.c **** enum UnityLengthModifier {
1891:Core/test/unity.c ****     UNITY_LENGTH_MODIFIER_NONE,
1892:Core/test/unity.c ****     UNITY_LENGTH_MODIFIER_LONG_LONG,
1893:Core/test/unity.c ****     UNITY_LENGTH_MODIFIER_LONG,
1894:Core/test/unity.c **** };
1895:Core/test/unity.c **** 
1896:Core/test/unity.c **** #define UNITY_EXTRACT_ARG(NUMBER_T, NUMBER, LENGTH_MOD, VA, ARG_T) \
1897:Core/test/unity.c **** do {                                                               \
1898:Core/test/unity.c ****     switch (LENGTH_MOD)                                            \
1899:Core/test/unity.c ****     {                                                              \
1900:Core/test/unity.c ****         case UNITY_LENGTH_MODIFIER_LONG_LONG:                      \
1901:Core/test/unity.c ****         {                                                          \
1902:Core/test/unity.c ****             NUMBER = (NUMBER_T)va_arg(VA, long long ARG_T);        \
1903:Core/test/unity.c ****             break;                                                 \
1904:Core/test/unity.c ****         }                                                          \
1905:Core/test/unity.c ****         case UNITY_LENGTH_MODIFIER_LONG:                           \
1906:Core/test/unity.c ****         {                                                          \
1907:Core/test/unity.c ****             NUMBER = (NUMBER_T)va_arg(VA, long ARG_T);             \
1908:Core/test/unity.c ****             break;                                                 \
1909:Core/test/unity.c ****         }                                                          \
1910:Core/test/unity.c ****         case UNITY_LENGTH_MODIFIER_NONE:                           \
1911:Core/test/unity.c ****         default:                                                   \
1912:Core/test/unity.c ****         {                                                          \
1913:Core/test/unity.c ****             NUMBER = (NUMBER_T)va_arg(VA, ARG_T);                  \
1914:Core/test/unity.c ****             break;                                                 \
1915:Core/test/unity.c ****         }                                                          \
1916:Core/test/unity.c ****     }                                                              \
1917:Core/test/unity.c **** } while (0)
1918:Core/test/unity.c **** 
1919:Core/test/unity.c **** static enum UnityLengthModifier UnityLengthModifierGet(const char *pch, int *length)
1920:Core/test/unity.c **** {
1921:Core/test/unity.c ****     enum UnityLengthModifier length_mod;
1922:Core/test/unity.c ****     switch (pch[0])
1923:Core/test/unity.c ****     {
1924:Core/test/unity.c ****         case 'l':
1925:Core/test/unity.c ****             {
1926:Core/test/unity.c ****                 if (pch[1] == 'l')
1927:Core/test/unity.c ****                 {
1928:Core/test/unity.c ****                     *length = 2;
1929:Core/test/unity.c ****                     length_mod = UNITY_LENGTH_MODIFIER_LONG_LONG;
1930:Core/test/unity.c ****                 }
1931:Core/test/unity.c ****                 else
1932:Core/test/unity.c ****                 {
ARM GAS  C:\Users\ASUS\AppData\Local\Temp\ccstHO0r.s 			page 149


1933:Core/test/unity.c ****                     *length = 1;
1934:Core/test/unity.c ****                     length_mod = UNITY_LENGTH_MODIFIER_LONG;
1935:Core/test/unity.c ****                 }
1936:Core/test/unity.c ****                 break;
1937:Core/test/unity.c ****             }
1938:Core/test/unity.c ****         case 'h':
1939:Core/test/unity.c ****             {
1940:Core/test/unity.c ****                 // short and char are converted to int
1941:Core/test/unity.c ****                 length_mod = UNITY_LENGTH_MODIFIER_NONE;
1942:Core/test/unity.c ****                 if (pch[1] == 'h')
1943:Core/test/unity.c ****                 {
1944:Core/test/unity.c ****                     *length = 2;
1945:Core/test/unity.c ****                 }
1946:Core/test/unity.c ****                 else
1947:Core/test/unity.c ****                 {
1948:Core/test/unity.c ****                     *length = 1;
1949:Core/test/unity.c ****                 }
1950:Core/test/unity.c ****                 break;
1951:Core/test/unity.c ****             }
1952:Core/test/unity.c ****         case 'j':
1953:Core/test/unity.c ****         case 'z':
1954:Core/test/unity.c ****         case 't':
1955:Core/test/unity.c ****         case 'L':
1956:Core/test/unity.c ****             {
1957:Core/test/unity.c ****                 // Not supported, but should gobble up the length specifier anyway
1958:Core/test/unity.c ****                 length_mod = UNITY_LENGTH_MODIFIER_NONE;
1959:Core/test/unity.c ****                 *length = 1;
1960:Core/test/unity.c ****                 break;
1961:Core/test/unity.c ****             }
1962:Core/test/unity.c ****         default:
1963:Core/test/unity.c ****             {
1964:Core/test/unity.c ****                 length_mod = UNITY_LENGTH_MODIFIER_NONE;
1965:Core/test/unity.c ****                 *length = 0;
1966:Core/test/unity.c ****             }
1967:Core/test/unity.c ****     }
1968:Core/test/unity.c ****     return length_mod;
1969:Core/test/unity.c **** }
1970:Core/test/unity.c **** 
1971:Core/test/unity.c **** /*-----------------------------------------------
1972:Core/test/unity.c ****  * printf helper function
1973:Core/test/unity.c ****  *-----------------------------------------------*/
1974:Core/test/unity.c **** static void UnityPrintFVA(const char* format, va_list va)
1975:Core/test/unity.c **** {
1976:Core/test/unity.c ****     const char* pch = format;
1977:Core/test/unity.c ****     if (pch != NULL)
1978:Core/test/unity.c ****     {
1979:Core/test/unity.c ****         while (*pch)
1980:Core/test/unity.c ****         {
1981:Core/test/unity.c ****             /* format identification character */
1982:Core/test/unity.c ****             if (*pch == '%')
1983:Core/test/unity.c ****             {
1984:Core/test/unity.c ****                 pch++;
1985:Core/test/unity.c **** 
1986:Core/test/unity.c ****                 if (pch != NULL)
1987:Core/test/unity.c ****                 {
1988:Core/test/unity.c ****                     int length_mod_size;
1989:Core/test/unity.c ****                     enum UnityLengthModifier length_mod = UnityLengthModifierGet(pch, &length_mod_s
ARM GAS  C:\Users\ASUS\AppData\Local\Temp\ccstHO0r.s 			page 150


1990:Core/test/unity.c ****                     pch += length_mod_size;
1991:Core/test/unity.c **** 
1992:Core/test/unity.c ****                     switch (*pch)
1993:Core/test/unity.c ****                     {
1994:Core/test/unity.c ****                         case 'd':
1995:Core/test/unity.c ****                         case 'i':
1996:Core/test/unity.c ****                             {
1997:Core/test/unity.c ****                                 UNITY_INT number;
1998:Core/test/unity.c ****                                 UNITY_EXTRACT_ARG(UNITY_INT, number, length_mod, va, int);
1999:Core/test/unity.c ****                                 UnityPrintNumber((UNITY_INT)number);
2000:Core/test/unity.c ****                                 break;
2001:Core/test/unity.c ****                             }
2002:Core/test/unity.c **** #ifndef UNITY_EXCLUDE_FLOAT_PRINT
2003:Core/test/unity.c ****                         case 'f':
2004:Core/test/unity.c ****                         case 'g':
2005:Core/test/unity.c ****                             {
2006:Core/test/unity.c ****                                 const double number = va_arg(va, double);
2007:Core/test/unity.c ****                                 UnityPrintFloat((UNITY_DOUBLE)number);
2008:Core/test/unity.c ****                                 break;
2009:Core/test/unity.c ****                             }
2010:Core/test/unity.c **** #endif
2011:Core/test/unity.c ****                         case 'u':
2012:Core/test/unity.c ****                             {
2013:Core/test/unity.c ****                                 UNITY_UINT number;
2014:Core/test/unity.c ****                                 UNITY_EXTRACT_ARG(UNITY_UINT, number, length_mod, va, unsigned int)
2015:Core/test/unity.c ****                                 UnityPrintNumberUnsigned(number);
2016:Core/test/unity.c ****                                 break;
2017:Core/test/unity.c ****                             }
2018:Core/test/unity.c ****                         case 'b':
2019:Core/test/unity.c ****                             {
2020:Core/test/unity.c ****                                 UNITY_UINT number;
2021:Core/test/unity.c ****                                 UNITY_EXTRACT_ARG(UNITY_UINT, number, length_mod, va, unsigned int)
2022:Core/test/unity.c ****                                 const UNITY_UINT mask = (UNITY_UINT)0 - (UNITY_UINT)1;
2023:Core/test/unity.c ****                                 UNITY_OUTPUT_CHAR('0');
2024:Core/test/unity.c ****                                 UNITY_OUTPUT_CHAR('b');
2025:Core/test/unity.c ****                                 UnityPrintMask(mask, number);
2026:Core/test/unity.c ****                                 break;
2027:Core/test/unity.c ****                             }
2028:Core/test/unity.c ****                         case 'x':
2029:Core/test/unity.c ****                         case 'X':
2030:Core/test/unity.c ****                             {
2031:Core/test/unity.c ****                                 UNITY_UINT number;
2032:Core/test/unity.c ****                                 UNITY_EXTRACT_ARG(UNITY_UINT, number, length_mod, va, unsigned int)
2033:Core/test/unity.c ****                                 UNITY_OUTPUT_CHAR('0');
2034:Core/test/unity.c ****                                 UNITY_OUTPUT_CHAR('x');
2035:Core/test/unity.c ****                                 UnityPrintNumberHex(number, UNITY_MAX_NIBBLES);
2036:Core/test/unity.c ****                                 break;
2037:Core/test/unity.c ****                             }
2038:Core/test/unity.c ****                         case 'p':
2039:Core/test/unity.c ****                             {
2040:Core/test/unity.c ****                                 UNITY_UINT number;
2041:Core/test/unity.c ****                                 char nibbles_to_print = 8;
2042:Core/test/unity.c ****                                 if (UNITY_POINTER_WIDTH == 64)
2043:Core/test/unity.c ****                                 {
2044:Core/test/unity.c ****                                     length_mod = UNITY_LENGTH_MODIFIER_LONG_LONG;
2045:Core/test/unity.c ****                                     nibbles_to_print = 16;
2046:Core/test/unity.c ****                                 }
ARM GAS  C:\Users\ASUS\AppData\Local\Temp\ccstHO0r.s 			page 151


2047:Core/test/unity.c ****                                 UNITY_EXTRACT_ARG(UNITY_UINT, number, length_mod, va, unsigned int)
2048:Core/test/unity.c ****                                 UNITY_OUTPUT_CHAR('0');
2049:Core/test/unity.c ****                                 UNITY_OUTPUT_CHAR('x');
2050:Core/test/unity.c ****                                 UnityPrintNumberHex((UNITY_UINT)number, nibbles_to_print);
2051:Core/test/unity.c ****                                 break;
2052:Core/test/unity.c ****                             }
2053:Core/test/unity.c ****                         case 'c':
2054:Core/test/unity.c ****                             {
2055:Core/test/unity.c ****                                 const int ch = va_arg(va, int);
2056:Core/test/unity.c ****                                 UnityPrintChar((const char *)&ch);
2057:Core/test/unity.c ****                                 break;
2058:Core/test/unity.c ****                             }
2059:Core/test/unity.c ****                         case 's':
2060:Core/test/unity.c ****                             {
2061:Core/test/unity.c ****                                 const char * string = va_arg(va, const char *);
2062:Core/test/unity.c ****                                 UnityPrint(string);
2063:Core/test/unity.c ****                                 break;
2064:Core/test/unity.c ****                             }
2065:Core/test/unity.c ****                         case '%':
2066:Core/test/unity.c ****                             {
2067:Core/test/unity.c ****                                 UnityPrintChar(pch);
2068:Core/test/unity.c ****                                 break;
2069:Core/test/unity.c ****                             }
2070:Core/test/unity.c ****                         default:
2071:Core/test/unity.c ****                             {
2072:Core/test/unity.c ****                                 /* print the unknown format character */
2073:Core/test/unity.c ****                                 UNITY_OUTPUT_CHAR('%');
2074:Core/test/unity.c ****                                 UnityPrintChar(pch);
2075:Core/test/unity.c ****                                 break;
2076:Core/test/unity.c ****                             }
2077:Core/test/unity.c ****                     }
2078:Core/test/unity.c ****                 }
2079:Core/test/unity.c ****             }
2080:Core/test/unity.c **** #ifdef UNITY_OUTPUT_COLOR
2081:Core/test/unity.c ****             /* print ANSI escape code */
2082:Core/test/unity.c ****             else if ((*pch == 27) && (*(pch + 1) == '['))
2083:Core/test/unity.c ****             {
2084:Core/test/unity.c ****                 pch += UnityPrintAnsiEscapeString(pch);
2085:Core/test/unity.c ****                 continue;
2086:Core/test/unity.c ****             }
2087:Core/test/unity.c **** #endif
2088:Core/test/unity.c ****             else if (*pch == '\n')
2089:Core/test/unity.c ****             {
2090:Core/test/unity.c ****                 UNITY_PRINT_EOL();
2091:Core/test/unity.c ****             }
2092:Core/test/unity.c ****             else
2093:Core/test/unity.c ****             {
2094:Core/test/unity.c ****                 UnityPrintChar(pch);
2095:Core/test/unity.c ****             }
2096:Core/test/unity.c **** 
2097:Core/test/unity.c ****             pch++;
2098:Core/test/unity.c ****         }
2099:Core/test/unity.c ****     }
2100:Core/test/unity.c **** }
2101:Core/test/unity.c **** 
2102:Core/test/unity.c **** void UnityPrintF(const UNITY_LINE_TYPE line, const char* format, ...)
2103:Core/test/unity.c **** {
ARM GAS  C:\Users\ASUS\AppData\Local\Temp\ccstHO0r.s 			page 152


2104:Core/test/unity.c ****     UnityTestResultsBegin(Unity.TestFile, line);
2105:Core/test/unity.c ****     UnityPrint("INFO");
2106:Core/test/unity.c ****     if(format != NULL)
2107:Core/test/unity.c ****     {
2108:Core/test/unity.c ****         UnityPrint(": ");
2109:Core/test/unity.c ****         va_list va;
2110:Core/test/unity.c ****         va_start(va, format);
2111:Core/test/unity.c ****         UnityPrintFVA(format, va);
2112:Core/test/unity.c ****         va_end(va);
2113:Core/test/unity.c ****     }
2114:Core/test/unity.c ****     UNITY_PRINT_EOL();
2115:Core/test/unity.c **** }
2116:Core/test/unity.c **** #endif /* ! UNITY_INCLUDE_PRINT_FORMATTED */
2117:Core/test/unity.c **** 
2118:Core/test/unity.c **** 
2119:Core/test/unity.c **** /*-----------------------------------------------
2120:Core/test/unity.c ****  * Control Functions
2121:Core/test/unity.c ****  *-----------------------------------------------*/
2122:Core/test/unity.c **** 
2123:Core/test/unity.c **** /*-----------------------------------------------*/
2124:Core/test/unity.c **** void UnityFail(const char* msg, const UNITY_LINE_TYPE line)
2125:Core/test/unity.c **** {
 5444              		.loc 1 2125 1 is_stmt 1 view -0
 5445              		.cfi_startproc
 5446              		@ Volatile: function does not return.
 5447              		@ args = 0, pretend = 0, frame = 0
 5448              		@ frame_needed = 0, uses_anonymous_args = 0
 5449              		.loc 1 2125 1 is_stmt 0 view .LVU1509
 5450 0000 08B5     		push	{r3, lr}
 5451              	.LCFI61:
 5452              		.cfi_def_cfa_offset 8
 5453              		.cfi_offset 3, -8
 5454              		.cfi_offset 14, -4
2126:Core/test/unity.c ****     RETURN_IF_FAIL_OR_IGNORE;
 5455              		.loc 1 2126 5 is_stmt 1 view .LVU1510
 5456              		.loc 1 2126 5 view .LVU1511
 5457 0002 1D4B     		ldr	r3, .L508
 5458 0004 1B6A     		ldr	r3, [r3, #32]
 5459 0006 1BB9     		cbnz	r3, .L500
 5460 0008 0446     		mov	r4, r0
 5461              		.loc 1 2126 5 is_stmt 0 discriminator 2 view .LVU1512
 5462 000a 1B4B     		ldr	r3, .L508
 5463 000c 5B6A     		ldr	r3, [r3, #36]
 5464 000e 1BB1     		cbz	r3, .L501
 5465              	.L500:
 5466              		.loc 1 2126 5 is_stmt 1 discriminator 3 view .LVU1513
 5467 0010 0121     		movs	r1, #1
 5468              	.LVL652:
 5469              		.loc 1 2126 5 is_stmt 0 discriminator 3 view .LVU1514
 5470 0012 1A48     		ldr	r0, .L508+4
 5471              	.LVL653:
 5472              		.loc 1 2126 5 discriminator 3 view .LVU1515
 5473 0014 FFF7FEFF 		bl	longjmp
 5474              	.LVL654:
 5475              	.L501:
 5476              		.loc 1 2126 5 is_stmt 1 discriminator 4 view .LVU1516
2127:Core/test/unity.c **** 
ARM GAS  C:\Users\ASUS\AppData\Local\Temp\ccstHO0r.s 			page 153


2128:Core/test/unity.c ****     UnityTestResultsBegin(Unity.TestFile, line);
 5477              		.loc 1 2128 5 discriminator 4 view .LVU1517
 5478 0018 174B     		ldr	r3, .L508
 5479 001a 1868     		ldr	r0, [r3]
 5480              	.LVL655:
 5481              		.loc 1 2128 5 is_stmt 0 discriminator 4 view .LVU1518
 5482 001c FFF7FEFF 		bl	UnityTestResultsBegin
 5483              	.LVL656:
2129:Core/test/unity.c ****     UnityPrint(UnityStrFail);
 5484              		.loc 1 2129 5 is_stmt 1 discriminator 4 view .LVU1519
 5485 0020 1748     		ldr	r0, .L508+8
 5486 0022 FFF7FEFF 		bl	UnityPrint
 5487              	.LVL657:
2130:Core/test/unity.c ****     if (msg != NULL)
 5488              		.loc 1 2130 5 discriminator 4 view .LVU1520
 5489              		.loc 1 2130 8 is_stmt 0 discriminator 4 view .LVU1521
 5490 0026 ECB1     		cbz	r4, .L502
2131:Core/test/unity.c ****     {
2132:Core/test/unity.c ****         UNITY_OUTPUT_CHAR(':');
 5491              		.loc 1 2132 9 is_stmt 1 view .LVU1522
 5492 0028 3A20     		movs	r0, #58
 5493 002a FFF7FEFF 		bl	uart_sendchar
 5494              	.LVL658:
2133:Core/test/unity.c **** 
2134:Core/test/unity.c **** #ifdef UNITY_PRINT_TEST_CONTEXT
2135:Core/test/unity.c ****         UNITY_PRINT_TEST_CONTEXT();
2136:Core/test/unity.c **** #endif
2137:Core/test/unity.c **** #ifndef UNITY_EXCLUDE_DETAILS
2138:Core/test/unity.c ****         if (Unity.CurrentDetail1)
 5495              		.loc 1 2138 9 view .LVU1523
 5496              		.loc 1 2138 18 is_stmt 0 view .LVU1524
 5497 002e 124B     		ldr	r3, .L508
 5498 0030 9B68     		ldr	r3, [r3, #8]
 5499              		.loc 1 2138 12 view .LVU1525
 5500 0032 8BB1     		cbz	r3, .L503
2139:Core/test/unity.c ****         {
2140:Core/test/unity.c ****             UnityPrint(UnityStrDetail1Name);
 5501              		.loc 1 2140 13 is_stmt 1 view .LVU1526
 5502 0034 1348     		ldr	r0, .L508+12
 5503 0036 FFF7FEFF 		bl	UnityPrint
 5504              	.LVL659:
2141:Core/test/unity.c ****             UnityPrint(Unity.CurrentDetail1);
 5505              		.loc 1 2141 13 view .LVU1527
 5506 003a 0F4D     		ldr	r5, .L508
 5507 003c A868     		ldr	r0, [r5, #8]
 5508 003e FFF7FEFF 		bl	UnityPrint
 5509              	.LVL660:
2142:Core/test/unity.c ****             if (Unity.CurrentDetail2)
 5510              		.loc 1 2142 13 view .LVU1528
 5511              		.loc 1 2142 22 is_stmt 0 view .LVU1529
 5512 0042 EB68     		ldr	r3, [r5, #12]
 5513              		.loc 1 2142 16 view .LVU1530
 5514 0044 2BB1     		cbz	r3, .L504
2143:Core/test/unity.c ****             {
2144:Core/test/unity.c ****                 UnityPrint(UnityStrDetail2Name);
 5515              		.loc 1 2144 17 is_stmt 1 view .LVU1531
 5516 0046 1048     		ldr	r0, .L508+16
ARM GAS  C:\Users\ASUS\AppData\Local\Temp\ccstHO0r.s 			page 154


 5517 0048 FFF7FEFF 		bl	UnityPrint
 5518              	.LVL661:
2145:Core/test/unity.c ****                 UnityPrint(Unity.CurrentDetail2);
 5519              		.loc 1 2145 17 view .LVU1532
 5520 004c E868     		ldr	r0, [r5, #12]
 5521 004e FFF7FEFF 		bl	UnityPrint
 5522              	.LVL662:
 5523              	.L504:
2146:Core/test/unity.c ****             }
2147:Core/test/unity.c ****             UnityPrint(UnityStrSpacer);
 5524              		.loc 1 2147 13 view .LVU1533
 5525 0052 0E48     		ldr	r0, .L508+20
 5526 0054 FFF7FEFF 		bl	UnityPrint
 5527              	.LVL663:
 5528              	.L503:
2148:Core/test/unity.c ****         }
2149:Core/test/unity.c **** #endif
2150:Core/test/unity.c ****         if (msg[0] != ' ')
 5529              		.loc 1 2150 9 view .LVU1534
 5530              		.loc 1 2150 16 is_stmt 0 view .LVU1535
 5531 0058 2378     		ldrb	r3, [r4]	@ zero_extendqisi2
 5532              		.loc 1 2150 12 view .LVU1536
 5533 005a 202B     		cmp	r3, #32
 5534 005c 08D1     		bne	.L507
 5535              	.L505:
2151:Core/test/unity.c ****         {
2152:Core/test/unity.c ****             UNITY_OUTPUT_CHAR(' ');
2153:Core/test/unity.c ****         }
2154:Core/test/unity.c ****         UnityPrint(msg);
 5536              		.loc 1 2154 9 is_stmt 1 view .LVU1537
 5537 005e 2046     		mov	r0, r4
 5538 0060 FFF7FEFF 		bl	UnityPrint
 5539              	.LVL664:
 5540              	.L502:
2155:Core/test/unity.c ****     }
2156:Core/test/unity.c **** 
2157:Core/test/unity.c ****     UNITY_FAIL_AND_BAIL;
 5541              		.loc 1 2157 5 view .LVU1538
 5542              		.loc 1 2157 5 view .LVU1539
 5543 0064 0448     		ldr	r0, .L508
 5544 0066 0121     		movs	r1, #1
 5545 0068 0162     		str	r1, [r0, #32]
 5546              		.loc 1 2157 5 view .LVU1540
 5547              		.loc 1 2157 5 view .LVU1541
 5548 006a 2830     		adds	r0, r0, #40
 5549 006c FFF7FEFF 		bl	longjmp
 5550              	.LVL665:
 5551              	.L507:
2152:Core/test/unity.c ****         }
 5552              		.loc 1 2152 13 view .LVU1542
 5553 0070 2020     		movs	r0, #32
 5554 0072 FFF7FEFF 		bl	uart_sendchar
 5555              	.LVL666:
 5556 0076 F2E7     		b	.L505
 5557              	.L509:
 5558              		.align	2
 5559              	.L508:
ARM GAS  C:\Users\ASUS\AppData\Local\Temp\ccstHO0r.s 			page 155


 5560 0078 00000000 		.word	.LANCHOR0
 5561 007c 28000000 		.word	.LANCHOR0+40
 5562 0080 00000000 		.word	.LANCHOR1
 5563 0084 00000000 		.word	.LANCHOR3
 5564 0088 00000000 		.word	.LANCHOR4
 5565 008c 00000000 		.word	.LANCHOR2
 5566              		.cfi_endproc
 5567              	.LFE171:
 5569              		.section	.text.UnityIgnore,"ax",%progbits
 5570              		.align	1
 5571              		.global	UnityIgnore
 5572              		.syntax unified
 5573              		.thumb
 5574              		.thumb_func
 5575              		.fpu fpv4-sp-d16
 5577              	UnityIgnore:
 5578              	.LVL667:
 5579              	.LFB172:
2158:Core/test/unity.c **** }
2159:Core/test/unity.c **** 
2160:Core/test/unity.c **** /*-----------------------------------------------*/
2161:Core/test/unity.c **** void UnityIgnore(const char* msg, const UNITY_LINE_TYPE line)
2162:Core/test/unity.c **** {
 5580              		.loc 1 2162 1 view -0
 5581              		.cfi_startproc
 5582              		@ Volatile: function does not return.
 5583              		@ args = 0, pretend = 0, frame = 0
 5584              		@ frame_needed = 0, uses_anonymous_args = 0
 5585              		.loc 1 2162 1 is_stmt 0 view .LVU1544
 5586 0000 08B5     		push	{r3, lr}
 5587              	.LCFI62:
 5588              		.cfi_def_cfa_offset 8
 5589              		.cfi_offset 3, -8
 5590              		.cfi_offset 14, -4
2163:Core/test/unity.c ****     RETURN_IF_FAIL_OR_IGNORE;
 5591              		.loc 1 2163 5 is_stmt 1 view .LVU1545
 5592              		.loc 1 2163 5 view .LVU1546
 5593 0002 114B     		ldr	r3, .L515
 5594 0004 1B6A     		ldr	r3, [r3, #32]
 5595 0006 1BB9     		cbnz	r3, .L511
 5596 0008 0446     		mov	r4, r0
 5597              		.loc 1 2163 5 is_stmt 0 discriminator 2 view .LVU1547
 5598 000a 0F4B     		ldr	r3, .L515
 5599 000c 5B6A     		ldr	r3, [r3, #36]
 5600 000e 1BB1     		cbz	r3, .L512
 5601              	.L511:
 5602              		.loc 1 2163 5 is_stmt 1 discriminator 3 view .LVU1548
 5603 0010 0121     		movs	r1, #1
 5604              	.LVL668:
 5605              		.loc 1 2163 5 is_stmt 0 discriminator 3 view .LVU1549
 5606 0012 0E48     		ldr	r0, .L515+4
 5607              	.LVL669:
 5608              		.loc 1 2163 5 discriminator 3 view .LVU1550
 5609 0014 FFF7FEFF 		bl	longjmp
 5610              	.LVL670:
 5611              	.L512:
 5612              		.loc 1 2163 5 is_stmt 1 discriminator 4 view .LVU1551
ARM GAS  C:\Users\ASUS\AppData\Local\Temp\ccstHO0r.s 			page 156


2164:Core/test/unity.c **** 
2165:Core/test/unity.c ****     UnityTestResultsBegin(Unity.TestFile, line);
 5613              		.loc 1 2165 5 discriminator 4 view .LVU1552
 5614 0018 0B4B     		ldr	r3, .L515
 5615 001a 1868     		ldr	r0, [r3]
 5616              	.LVL671:
 5617              		.loc 1 2165 5 is_stmt 0 discriminator 4 view .LVU1553
 5618 001c FFF7FEFF 		bl	UnityTestResultsBegin
 5619              	.LVL672:
2166:Core/test/unity.c ****     UnityPrint(UnityStrIgnore);
 5620              		.loc 1 2166 5 is_stmt 1 discriminator 4 view .LVU1554
 5621 0020 0B48     		ldr	r0, .L515+8
 5622 0022 FFF7FEFF 		bl	UnityPrint
 5623              	.LVL673:
2167:Core/test/unity.c ****     if (msg != NULL)
 5624              		.loc 1 2167 5 discriminator 4 view .LVU1555
 5625              		.loc 1 2167 8 is_stmt 0 discriminator 4 view .LVU1556
 5626 0026 44B1     		cbz	r4, .L513
2168:Core/test/unity.c ****     {
2169:Core/test/unity.c ****         UNITY_OUTPUT_CHAR(':');
 5627              		.loc 1 2169 9 is_stmt 1 view .LVU1557
 5628 0028 3A20     		movs	r0, #58
 5629 002a FFF7FEFF 		bl	uart_sendchar
 5630              	.LVL674:
2170:Core/test/unity.c ****         UNITY_OUTPUT_CHAR(' ');
 5631              		.loc 1 2170 9 view .LVU1558
 5632 002e 2020     		movs	r0, #32
 5633 0030 FFF7FEFF 		bl	uart_sendchar
 5634              	.LVL675:
2171:Core/test/unity.c ****         UnityPrint(msg);
 5635              		.loc 1 2171 9 view .LVU1559
 5636 0034 2046     		mov	r0, r4
 5637 0036 FFF7FEFF 		bl	UnityPrint
 5638              	.LVL676:
 5639              	.L513:
2172:Core/test/unity.c ****     }
2173:Core/test/unity.c ****     UNITY_IGNORE_AND_BAIL;
 5640              		.loc 1 2173 5 view .LVU1560
 5641              		.loc 1 2173 5 view .LVU1561
 5642 003a 0348     		ldr	r0, .L515
 5643 003c 0121     		movs	r1, #1
 5644 003e 4162     		str	r1, [r0, #36]
 5645              		.loc 1 2173 5 view .LVU1562
 5646              		.loc 1 2173 5 view .LVU1563
 5647 0040 2830     		adds	r0, r0, #40
 5648 0042 FFF7FEFF 		bl	longjmp
 5649              	.LVL677:
 5650              	.L516:
 5651 0046 00BF     		.align	2
 5652              	.L515:
 5653 0048 00000000 		.word	.LANCHOR0
 5654 004c 28000000 		.word	.LANCHOR0+40
 5655 0050 00000000 		.word	.LANCHOR24
 5656              		.cfi_endproc
 5657              	.LFE172:
 5659              		.section	.rodata.UnityMessage.str1.4,"aMS",%progbits,1
 5660              		.align	2
ARM GAS  C:\Users\ASUS\AppData\Local\Temp\ccstHO0r.s 			page 157


 5661              	.LC5:
 5662 0000 494E464F 		.ascii	"INFO\000"
 5662      00
 5663              		.section	.text.UnityMessage,"ax",%progbits
 5664              		.align	1
 5665              		.global	UnityMessage
 5666              		.syntax unified
 5667              		.thumb
 5668              		.thumb_func
 5669              		.fpu fpv4-sp-d16
 5671              	UnityMessage:
 5672              	.LVL678:
 5673              	.LFB173:
2174:Core/test/unity.c **** }
2175:Core/test/unity.c **** 
2176:Core/test/unity.c **** /*-----------------------------------------------*/
2177:Core/test/unity.c **** void UnityMessage(const char* msg, const UNITY_LINE_TYPE line)
2178:Core/test/unity.c **** {
 5674              		.loc 1 2178 1 view -0
 5675              		.cfi_startproc
 5676              		@ args = 0, pretend = 0, frame = 0
 5677              		@ frame_needed = 0, uses_anonymous_args = 0
 5678              		.loc 1 2178 1 is_stmt 0 view .LVU1565
 5679 0000 10B5     		push	{r4, lr}
 5680              	.LCFI63:
 5681              		.cfi_def_cfa_offset 8
 5682              		.cfi_offset 4, -8
 5683              		.cfi_offset 14, -4
 5684 0002 0446     		mov	r4, r0
2179:Core/test/unity.c ****     UnityTestResultsBegin(Unity.TestFile, line);
 5685              		.loc 1 2179 5 is_stmt 1 view .LVU1566
 5686 0004 0A4B     		ldr	r3, .L520
 5687 0006 1868     		ldr	r0, [r3]
 5688              	.LVL679:
 5689              		.loc 1 2179 5 is_stmt 0 view .LVU1567
 5690 0008 FFF7FEFF 		bl	UnityTestResultsBegin
 5691              	.LVL680:
2180:Core/test/unity.c ****     UnityPrint("INFO");
 5692              		.loc 1 2180 5 is_stmt 1 view .LVU1568
 5693 000c 0948     		ldr	r0, .L520+4
 5694 000e FFF7FEFF 		bl	UnityPrint
 5695              	.LVL681:
2181:Core/test/unity.c ****     if (msg != NULL)
 5696              		.loc 1 2181 5 view .LVU1569
 5697              		.loc 1 2181 8 is_stmt 0 view .LVU1570
 5698 0012 44B1     		cbz	r4, .L518
2182:Core/test/unity.c ****     {
2183:Core/test/unity.c ****       UNITY_OUTPUT_CHAR(':');
 5699              		.loc 1 2183 7 is_stmt 1 view .LVU1571
 5700 0014 3A20     		movs	r0, #58
 5701 0016 FFF7FEFF 		bl	uart_sendchar
 5702              	.LVL682:
2184:Core/test/unity.c ****       UNITY_OUTPUT_CHAR(' ');
 5703              		.loc 1 2184 7 view .LVU1572
 5704 001a 2020     		movs	r0, #32
 5705 001c FFF7FEFF 		bl	uart_sendchar
 5706              	.LVL683:
ARM GAS  C:\Users\ASUS\AppData\Local\Temp\ccstHO0r.s 			page 158


2185:Core/test/unity.c ****       UnityPrint(msg);
 5707              		.loc 1 2185 7 view .LVU1573
 5708 0020 2046     		mov	r0, r4
 5709 0022 FFF7FEFF 		bl	UnityPrint
 5710              	.LVL684:
 5711              	.L518:
2186:Core/test/unity.c ****     }
2187:Core/test/unity.c ****     UNITY_PRINT_EOL();
 5712              		.loc 1 2187 5 view .LVU1574
 5713 0026 0A20     		movs	r0, #10
 5714 0028 FFF7FEFF 		bl	uart_sendchar
 5715              	.LVL685:
2188:Core/test/unity.c **** }
 5716              		.loc 1 2188 1 is_stmt 0 view .LVU1575
 5717 002c 10BD     		pop	{r4, pc}
 5718              	.LVL686:
 5719              	.L521:
 5720              		.loc 1 2188 1 view .LVU1576
 5721 002e 00BF     		.align	2
 5722              	.L520:
 5723 0030 00000000 		.word	.LANCHOR0
 5724 0034 00000000 		.word	.LC5
 5725              		.cfi_endproc
 5726              	.LFE173:
 5728              		.section	.text.UnityDefaultTestRun,"ax",%progbits
 5729              		.align	1
 5730              		.global	UnityDefaultTestRun
 5731              		.syntax unified
 5732              		.thumb
 5733              		.thumb_func
 5734              		.fpu fpv4-sp-d16
 5736              	UnityDefaultTestRun:
 5737              	.LVL687:
 5738              	.LFB174:
2189:Core/test/unity.c **** 
2190:Core/test/unity.c **** /*-----------------------------------------------*/
2191:Core/test/unity.c **** /* If we have not defined our own test runner, then include our default test runner to make life ea
2192:Core/test/unity.c **** #ifndef UNITY_SKIP_DEFAULT_RUNNER
2193:Core/test/unity.c **** void UnityDefaultTestRun(UnityTestFunction Func, const char* FuncName, const int FuncLineNum)
2194:Core/test/unity.c **** {
 5739              		.loc 1 2194 1 is_stmt 1 view -0
 5740              		.cfi_startproc
 5741              		@ args = 0, pretend = 0, frame = 8
 5742              		@ frame_needed = 0, uses_anonymous_args = 0
 5743              		.loc 1 2194 1 is_stmt 0 view .LVU1578
 5744 0000 00B5     		push	{lr}
 5745              	.LCFI64:
 5746              		.cfi_def_cfa_offset 4
 5747              		.cfi_offset 14, -4
 5748 0002 83B0     		sub	sp, sp, #12
 5749              	.LCFI65:
 5750              		.cfi_def_cfa_offset 16
 5751 0004 0190     		str	r0, [sp, #4]
2195:Core/test/unity.c ****     Unity.CurrentTestName = FuncName;
 5752              		.loc 1 2195 5 is_stmt 1 view .LVU1579
 5753              		.loc 1 2195 27 is_stmt 0 view .LVU1580
 5754 0006 0F48     		ldr	r0, .L529
ARM GAS  C:\Users\ASUS\AppData\Local\Temp\ccstHO0r.s 			page 159


 5755              	.LVL688:
 5756              		.loc 1 2195 27 view .LVU1581
 5757 0008 4160     		str	r1, [r0, #4]
2196:Core/test/unity.c ****     Unity.CurrentTestLineNumber = (UNITY_LINE_TYPE)FuncLineNum;
 5758              		.loc 1 2196 5 is_stmt 1 view .LVU1582
 5759              		.loc 1 2196 33 is_stmt 0 view .LVU1583
 5760 000a 0261     		str	r2, [r0, #16]
2197:Core/test/unity.c ****     Unity.NumberOfTests++;
 5761              		.loc 1 2197 5 is_stmt 1 view .LVU1584
 5762              		.loc 1 2197 10 is_stmt 0 view .LVU1585
 5763 000c 4369     		ldr	r3, [r0, #20]
 5764              		.loc 1 2197 24 view .LVU1586
 5765 000e 0133     		adds	r3, r3, #1
 5766 0010 4361     		str	r3, [r0, #20]
2198:Core/test/unity.c ****     UNITY_CLR_DETAILS();
 5767              		.loc 1 2198 5 is_stmt 1 view .LVU1587
 5768              		.loc 1 2198 5 view .LVU1588
 5769 0012 0023     		movs	r3, #0
 5770 0014 8360     		str	r3, [r0, #8]
 5771              		.loc 1 2198 5 view .LVU1589
 5772 0016 C360     		str	r3, [r0, #12]
 5773              		.loc 1 2198 5 view .LVU1590
2199:Core/test/unity.c ****     UNITY_EXEC_TIME_START();
 5774              		.loc 1 2199 5 view .LVU1591
 5775              		.loc 1 2199 5 view .LVU1592
 5776              		.loc 1 2199 5 view .LVU1593
2200:Core/test/unity.c ****     if (TEST_PROTECT())
 5777              		.loc 1 2200 5 view .LVU1594
 5778              		.loc 1 2200 9 is_stmt 0 view .LVU1595
 5779 0018 2830     		adds	r0, r0, #40
 5780 001a FFF7FEFF 		bl	setjmp
 5781              	.LVL689:
 5782              		.loc 1 2200 8 view .LVU1596
 5783 001e 40B1     		cbz	r0, .L527
 5784              	.L524:
2201:Core/test/unity.c ****     {
2202:Core/test/unity.c ****         setUp();
2203:Core/test/unity.c ****         Func();
2204:Core/test/unity.c ****     }
2205:Core/test/unity.c ****     if (TEST_PROTECT())
 5785              		.loc 1 2205 9 view .LVU1597
 5786 0020 0948     		ldr	r0, .L529+4
 5787 0022 FFF7FEFF 		bl	setjmp
 5788              	.LVL690:
 5789              		.loc 1 2205 8 view .LVU1598
 5790 0026 48B1     		cbz	r0, .L528
 5791              	.L525:
2206:Core/test/unity.c ****     {
2207:Core/test/unity.c ****         tearDown();
2208:Core/test/unity.c ****     }
2209:Core/test/unity.c ****     UNITY_EXEC_TIME_STOP();
 5792              		.loc 1 2209 5 is_stmt 1 view .LVU1599
 5793              		.loc 1 2209 5 view .LVU1600
 5794              		.loc 1 2209 5 view .LVU1601
2210:Core/test/unity.c ****     UnityConcludeTest();
 5795              		.loc 1 2210 5 view .LVU1602
 5796 0028 FFF7FEFF 		bl	UnityConcludeTest
ARM GAS  C:\Users\ASUS\AppData\Local\Temp\ccstHO0r.s 			page 160


 5797              	.LVL691:
2211:Core/test/unity.c **** }
 5798              		.loc 1 2211 1 is_stmt 0 view .LVU1603
 5799 002c 03B0     		add	sp, sp, #12
 5800              	.LCFI66:
 5801              		.cfi_remember_state
 5802              		.cfi_def_cfa_offset 4
 5803              		@ sp needed
 5804 002e 5DF804FB 		ldr	pc, [sp], #4
 5805              	.LVL692:
 5806              	.L527:
 5807              	.LCFI67:
 5808              		.cfi_restore_state
2202:Core/test/unity.c ****         Func();
 5809              		.loc 1 2202 9 is_stmt 1 view .LVU1604
 5810 0032 FFF7FEFF 		bl	setUp
 5811              	.LVL693:
2203:Core/test/unity.c ****     }
 5812              		.loc 1 2203 9 view .LVU1605
 5813 0036 019B     		ldr	r3, [sp, #4]
 5814 0038 9847     		blx	r3
 5815              	.LVL694:
 5816 003a F1E7     		b	.L524
 5817              	.L528:
2207:Core/test/unity.c ****     }
 5818              		.loc 1 2207 9 view .LVU1606
 5819 003c FFF7FEFF 		bl	tearDown
 5820              	.LVL695:
 5821 0040 F2E7     		b	.L525
 5822              	.L530:
 5823 0042 00BF     		.align	2
 5824              	.L529:
 5825 0044 00000000 		.word	.LANCHOR0
 5826 0048 28000000 		.word	.LANCHOR0+40
 5827              		.cfi_endproc
 5828              	.LFE174:
 5830              		.section	.text.UnitySetTestFile,"ax",%progbits
 5831              		.align	1
 5832              		.global	UnitySetTestFile
 5833              		.syntax unified
 5834              		.thumb
 5835              		.thumb_func
 5836              		.fpu fpv4-sp-d16
 5838              	UnitySetTestFile:
 5839              	.LVL696:
 5840              	.LFB175:
2212:Core/test/unity.c **** #endif
2213:Core/test/unity.c **** 
2214:Core/test/unity.c **** /*-----------------------------------------------*/
2215:Core/test/unity.c **** void UnitySetTestFile(const char* filename)
2216:Core/test/unity.c **** {
 5841              		.loc 1 2216 1 view -0
 5842              		.cfi_startproc
 5843              		@ args = 0, pretend = 0, frame = 0
 5844              		@ frame_needed = 0, uses_anonymous_args = 0
 5845              		@ link register save eliminated.
2217:Core/test/unity.c ****     Unity.TestFile = filename;
ARM GAS  C:\Users\ASUS\AppData\Local\Temp\ccstHO0r.s 			page 161


 5846              		.loc 1 2217 5 view .LVU1608
 5847              		.loc 1 2217 20 is_stmt 0 view .LVU1609
 5848 0000 014B     		ldr	r3, .L532
 5849 0002 1860     		str	r0, [r3]
2218:Core/test/unity.c **** }
 5850              		.loc 1 2218 1 view .LVU1610
 5851 0004 7047     		bx	lr
 5852              	.L533:
 5853 0006 00BF     		.align	2
 5854              	.L532:
 5855 0008 00000000 		.word	.LANCHOR0
 5856              		.cfi_endproc
 5857              	.LFE175:
 5859              		.section	.text.UnityBegin,"ax",%progbits
 5860              		.align	1
 5861              		.global	UnityBegin
 5862              		.syntax unified
 5863              		.thumb
 5864              		.thumb_func
 5865              		.fpu fpv4-sp-d16
 5867              	UnityBegin:
 5868              	.LVL697:
 5869              	.LFB176:
2219:Core/test/unity.c **** 
2220:Core/test/unity.c **** /*-----------------------------------------------*/
2221:Core/test/unity.c **** void UnityBegin(const char* filename)
2222:Core/test/unity.c **** {
 5870              		.loc 1 2222 1 is_stmt 1 view -0
 5871              		.cfi_startproc
 5872              		@ args = 0, pretend = 0, frame = 0
 5873              		@ frame_needed = 0, uses_anonymous_args = 0
 5874              		@ link register save eliminated.
2223:Core/test/unity.c ****     Unity.TestFile = filename;
 5875              		.loc 1 2223 5 view .LVU1612
 5876              		.loc 1 2223 20 is_stmt 0 view .LVU1613
 5877 0000 064B     		ldr	r3, .L535
 5878 0002 1860     		str	r0, [r3]
2224:Core/test/unity.c ****     Unity.CurrentTestName = NULL;
 5879              		.loc 1 2224 5 is_stmt 1 view .LVU1614
 5880              		.loc 1 2224 27 is_stmt 0 view .LVU1615
 5881 0004 0022     		movs	r2, #0
 5882 0006 5A60     		str	r2, [r3, #4]
2225:Core/test/unity.c ****     Unity.CurrentTestLineNumber = 0;
 5883              		.loc 1 2225 5 is_stmt 1 view .LVU1616
 5884              		.loc 1 2225 33 is_stmt 0 view .LVU1617
 5885 0008 1A61     		str	r2, [r3, #16]
2226:Core/test/unity.c ****     Unity.NumberOfTests = 0;
 5886              		.loc 1 2226 5 is_stmt 1 view .LVU1618
 5887              		.loc 1 2226 25 is_stmt 0 view .LVU1619
 5888 000a 5A61     		str	r2, [r3, #20]
2227:Core/test/unity.c ****     Unity.TestFailures = 0;
 5889              		.loc 1 2227 5 is_stmt 1 view .LVU1620
 5890              		.loc 1 2227 24 is_stmt 0 view .LVU1621
 5891 000c 9A61     		str	r2, [r3, #24]
2228:Core/test/unity.c ****     Unity.TestIgnores = 0;
 5892              		.loc 1 2228 5 is_stmt 1 view .LVU1622
 5893              		.loc 1 2228 23 is_stmt 0 view .LVU1623
ARM GAS  C:\Users\ASUS\AppData\Local\Temp\ccstHO0r.s 			page 162


 5894 000e DA61     		str	r2, [r3, #28]
2229:Core/test/unity.c ****     Unity.CurrentTestFailed = 0;
 5895              		.loc 1 2229 5 is_stmt 1 view .LVU1624
 5896              		.loc 1 2229 29 is_stmt 0 view .LVU1625
 5897 0010 1A62     		str	r2, [r3, #32]
2230:Core/test/unity.c ****     Unity.CurrentTestIgnored = 0;
 5898              		.loc 1 2230 5 is_stmt 1 view .LVU1626
 5899              		.loc 1 2230 30 is_stmt 0 view .LVU1627
 5900 0012 5A62     		str	r2, [r3, #36]
2231:Core/test/unity.c **** 
2232:Core/test/unity.c ****     UNITY_CLR_DETAILS();
 5901              		.loc 1 2232 5 is_stmt 1 view .LVU1628
 5902              		.loc 1 2232 5 view .LVU1629
 5903 0014 9A60     		str	r2, [r3, #8]
 5904              		.loc 1 2232 5 view .LVU1630
 5905 0016 DA60     		str	r2, [r3, #12]
 5906              		.loc 1 2232 5 view .LVU1631
2233:Core/test/unity.c ****     UNITY_OUTPUT_START();
 5907              		.loc 1 2233 25 view .LVU1632
2234:Core/test/unity.c **** }
 5908              		.loc 1 2234 1 is_stmt 0 view .LVU1633
 5909 0018 7047     		bx	lr
 5910              	.L536:
 5911 001a 00BF     		.align	2
 5912              	.L535:
 5913 001c 00000000 		.word	.LANCHOR0
 5914              		.cfi_endproc
 5915              	.LFE176:
 5917              		.section	.text.UnityEnd,"ax",%progbits
 5918              		.align	1
 5919              		.global	UnityEnd
 5920              		.syntax unified
 5921              		.thumb
 5922              		.thumb_func
 5923              		.fpu fpv4-sp-d16
 5925              	UnityEnd:
 5926              	.LFB177:
2235:Core/test/unity.c **** 
2236:Core/test/unity.c **** /*-----------------------------------------------*/
2237:Core/test/unity.c **** int UnityEnd(void)
2238:Core/test/unity.c **** {
 5927              		.loc 1 2238 1 is_stmt 1 view -0
 5928              		.cfi_startproc
 5929              		@ args = 0, pretend = 0, frame = 0
 5930              		@ frame_needed = 0, uses_anonymous_args = 0
 5931 0000 10B5     		push	{r4, lr}
 5932              	.LCFI68:
 5933              		.cfi_def_cfa_offset 8
 5934              		.cfi_offset 4, -8
 5935              		.cfi_offset 14, -4
2239:Core/test/unity.c ****     UNITY_PRINT_EOL();
 5936              		.loc 1 2239 5 view .LVU1635
 5937 0002 0A20     		movs	r0, #10
 5938 0004 FFF7FEFF 		bl	uart_sendchar
 5939              	.LVL698:
2240:Core/test/unity.c ****     UnityPrint(UnityStrBreaker);
 5940              		.loc 1 2240 5 view .LVU1636
ARM GAS  C:\Users\ASUS\AppData\Local\Temp\ccstHO0r.s 			page 163


 5941 0008 1548     		ldr	r0, .L541
 5942 000a FFF7FEFF 		bl	UnityPrint
 5943              	.LVL699:
2241:Core/test/unity.c ****     UNITY_PRINT_EOL();
 5944              		.loc 1 2241 5 view .LVU1637
 5945 000e 0A20     		movs	r0, #10
 5946 0010 FFF7FEFF 		bl	uart_sendchar
 5947              	.LVL700:
2242:Core/test/unity.c ****     UnityPrintNumber((UNITY_INT)(Unity.NumberOfTests));
 5948              		.loc 1 2242 5 view .LVU1638
 5949              		.loc 1 2242 39 is_stmt 0 view .LVU1639
 5950 0014 134C     		ldr	r4, .L541+4
 5951              		.loc 1 2242 5 view .LVU1640
 5952 0016 6069     		ldr	r0, [r4, #20]
 5953 0018 FFF7FEFF 		bl	UnityPrintNumber
 5954              	.LVL701:
2243:Core/test/unity.c ****     UnityPrint(UnityStrResultsTests);
 5955              		.loc 1 2243 5 is_stmt 1 view .LVU1641
 5956 001c 1248     		ldr	r0, .L541+8
 5957 001e FFF7FEFF 		bl	UnityPrint
 5958              	.LVL702:
2244:Core/test/unity.c ****     UnityPrintNumber((UNITY_INT)(Unity.TestFailures));
 5959              		.loc 1 2244 5 view .LVU1642
 5960 0022 A069     		ldr	r0, [r4, #24]
 5961 0024 FFF7FEFF 		bl	UnityPrintNumber
 5962              	.LVL703:
2245:Core/test/unity.c ****     UnityPrint(UnityStrResultsFailures);
 5963              		.loc 1 2245 5 view .LVU1643
 5964 0028 1048     		ldr	r0, .L541+12
 5965 002a FFF7FEFF 		bl	UnityPrint
 5966              	.LVL704:
2246:Core/test/unity.c ****     UnityPrintNumber((UNITY_INT)(Unity.TestIgnores));
 5967              		.loc 1 2246 5 view .LVU1644
 5968 002e E069     		ldr	r0, [r4, #28]
 5969 0030 FFF7FEFF 		bl	UnityPrintNumber
 5970              	.LVL705:
2247:Core/test/unity.c ****     UnityPrint(UnityStrResultsIgnored);
 5971              		.loc 1 2247 5 view .LVU1645
 5972 0034 0E48     		ldr	r0, .L541+16
 5973 0036 FFF7FEFF 		bl	UnityPrint
 5974              	.LVL706:
2248:Core/test/unity.c ****     UNITY_PRINT_EOL();
 5975              		.loc 1 2248 5 view .LVU1646
 5976 003a 0A20     		movs	r0, #10
 5977 003c FFF7FEFF 		bl	uart_sendchar
 5978              	.LVL707:
2249:Core/test/unity.c ****     if (Unity.TestFailures == 0U)
 5979              		.loc 1 2249 5 view .LVU1647
 5980              		.loc 1 2249 14 is_stmt 0 view .LVU1648
 5981 0040 A369     		ldr	r3, [r4, #24]
 5982              		.loc 1 2249 8 view .LVU1649
 5983 0042 43B9     		cbnz	r3, .L538
2250:Core/test/unity.c ****     {
2251:Core/test/unity.c ****         UnityPrint(UnityStrOk);
 5984              		.loc 1 2251 9 is_stmt 1 view .LVU1650
 5985 0044 0B48     		ldr	r0, .L541+20
 5986 0046 FFF7FEFF 		bl	UnityPrint
ARM GAS  C:\Users\ASUS\AppData\Local\Temp\ccstHO0r.s 			page 164


 5987              	.LVL708:
 5988              	.L539:
2252:Core/test/unity.c ****     }
2253:Core/test/unity.c ****     else
2254:Core/test/unity.c ****     {
2255:Core/test/unity.c ****         UnityPrint(UnityStrFail);
2256:Core/test/unity.c **** #ifdef UNITY_DIFFERENTIATE_FINAL_FAIL
2257:Core/test/unity.c ****         UNITY_OUTPUT_CHAR('E'); UNITY_OUTPUT_CHAR('D');
2258:Core/test/unity.c **** #endif
2259:Core/test/unity.c ****     }
2260:Core/test/unity.c ****     UNITY_PRINT_EOL();
 5989              		.loc 1 2260 5 view .LVU1651
 5990 004a 0A20     		movs	r0, #10
 5991 004c FFF7FEFF 		bl	uart_sendchar
 5992              	.LVL709:
2261:Core/test/unity.c ****     UNITY_FLUSH_CALL();
 5993              		.loc 1 2261 5 view .LVU1652
2262:Core/test/unity.c ****     UNITY_OUTPUT_COMPLETE();
 5994              		.loc 1 2262 28 view .LVU1653
2263:Core/test/unity.c ****     return (int)(Unity.TestFailures);
 5995              		.loc 1 2263 5 view .LVU1654
2264:Core/test/unity.c **** }
 5996              		.loc 1 2264 1 is_stmt 0 view .LVU1655
 5997 0050 044B     		ldr	r3, .L541+4
 5998 0052 9869     		ldr	r0, [r3, #24]
 5999 0054 10BD     		pop	{r4, pc}
 6000              	.L538:
2255:Core/test/unity.c **** #ifdef UNITY_DIFFERENTIATE_FINAL_FAIL
 6001              		.loc 1 2255 9 is_stmt 1 view .LVU1656
 6002 0056 0848     		ldr	r0, .L541+24
 6003 0058 FFF7FEFF 		bl	UnityPrint
 6004              	.LVL710:
 6005 005c F5E7     		b	.L539
 6006              	.L542:
 6007 005e 00BF     		.align	2
 6008              	.L541:
 6009 0060 00000000 		.word	.LANCHOR25
 6010 0064 00000000 		.word	.LANCHOR0
 6011 0068 00000000 		.word	.LANCHOR26
 6012 006c 00000000 		.word	.LANCHOR27
 6013 0070 00000000 		.word	.LANCHOR28
 6014 0074 00000000 		.word	.LANCHOR29
 6015 0078 00000000 		.word	.LANCHOR1
 6016              		.cfi_endproc
 6017              	.LFE177:
 6019              		.global	UnityStrErr64
 6020              		.global	UnityStrErrDouble
 6021              		.global	UnityStrErrFloat
 6022              		.global	UnityStrErrShorthand
 6023              		.global	UnityStrIgnore
 6024              		.global	UnityStrFail
 6025              		.global	UnityStrPass
 6026              		.global	UnityStrOk
 6027              		.global	Unity
 6028              		.section	.rodata
 6029              		.align	2
 6030              		.set	.LANCHOR17,. + 0
ARM GAS  C:\Users\ASUS\AppData\Local\Temp\ccstHO0r.s 			page 165


 6031              	.LC4:
 6032 0000 00000000 		.word	UnityStrInf
 6033 0004 00000000 		.word	UnityStrNegInf
 6034 0008 00000000 		.word	UnityStrNaN
 6035 000c 00000000 		.word	UnityStrDet
 6036              		.section	.bss.Unity,"aw",%nobits
 6037              		.align	2
 6038              		.set	.LANCHOR0,. + 0
 6041              	Unity:
 6042 0000 00000000 		.space	132
 6042      00000000 
 6042      00000000 
 6042      00000000 
 6042      00000000 
 6043              		.section	.bss.UnityQuickCompare,"aw",%nobits
 6044              		.align	2
 6045              		.set	.LANCHOR23,. + 0
 6048              	UnityQuickCompare:
 6049 0000 00000000 		.space	4
 6050              		.section	.rodata.UnityStrBreaker,"a"
 6051              		.align	2
 6052              		.set	.LANCHOR25,. + 0
 6055              	UnityStrBreaker:
 6056 0000 2D2D2D2D 		.ascii	"-----------------------\000"
 6056      2D2D2D2D 
 6056      2D2D2D2D 
 6056      2D2D2D2D 
 6056      2D2D2D2D 
 6057              		.section	.rodata.UnityStrByte,"a"
 6058              		.align	2
 6059              		.set	.LANCHOR22,. + 0
 6062              	UnityStrByte:
 6063 0000 20427974 		.ascii	" Byte \000"
 6063      652000
 6064              		.section	.rodata.UnityStrDelta,"a"
 6065              		.align	2
 6066              		.set	.LANCHOR20,. + 0
 6069              	UnityStrDelta:
 6070 0000 2056616C 		.ascii	" Values Not Within Delta \000"
 6070      75657320 
 6070      4E6F7420 
 6070      57697468 
 6070      696E2044 
 6071              		.section	.rodata.UnityStrDet,"a"
 6072              		.align	2
 6075              	UnityStrDet:
 6076 0000 44657465 		.ascii	"Determinate\000"
 6076      726D696E 
 6076      61746500 
 6077              		.section	.rodata.UnityStrDetail1Name,"a"
 6078              		.align	2
 6079              		.set	.LANCHOR3,. + 0
 6082              	UnityStrDetail1Name:
 6083 0000 46756E63 		.ascii	"Function \000"
 6083      74696F6E 
 6083      2000
 6084              		.section	.rodata.UnityStrDetail2Name,"a"
ARM GAS  C:\Users\ASUS\AppData\Local\Temp\ccstHO0r.s 			page 166


 6085              		.align	2
 6086              		.set	.LANCHOR4,. + 0
 6089              	UnityStrDetail2Name:
 6090 0000 20417267 		.ascii	" Argument \000"
 6090      756D656E 
 6090      742000
 6091              		.section	.rodata.UnityStrElement,"a"
 6092              		.align	2
 6093              		.set	.LANCHOR16,. + 0
 6096              	UnityStrElement:
 6097 0000 20456C65 		.ascii	" Element \000"
 6097      6D656E74 
 6097      2000
 6098              		.section	.rodata.UnityStrErr64,"a"
 6099              		.align	2
 6102              	UnityStrErr64:
 6103 0000 556E6974 		.ascii	"Unity 64-bit Support Disabled\000"
 6103      79203634 
 6103      2D626974 
 6103      20537570 
 6103      706F7274 
 6104              		.section	.rodata.UnityStrErrDouble,"a"
 6105              		.align	2
 6108              	UnityStrErrDouble:
 6109 0000 556E6974 		.ascii	"Unity Double Precision Disabled\000"
 6109      7920446F 
 6109      75626C65 
 6109      20507265 
 6109      63697369 
 6110              		.section	.rodata.UnityStrErrFloat,"a"
 6111              		.align	2
 6114              	UnityStrErrFloat:
 6115 0000 556E6974 		.ascii	"Unity Floating Point Disabled\000"
 6115      7920466C 
 6115      6F617469 
 6115      6E672050 
 6115      6F696E74 
 6116              		.section	.rodata.UnityStrErrShorthand,"a"
 6117              		.align	2
 6120              	UnityStrErrShorthand:
 6121 0000 556E6974 		.ascii	"Unity Shorthand Support Disabled\000"
 6121      79205368 
 6121      6F727468 
 6121      616E6420 
 6121      53757070 
 6122              		.section	.rodata.UnityStrExpected,"a"
 6123              		.align	2
 6124              		.set	.LANCHOR7,. + 0
 6127              	UnityStrExpected:
 6128 0000 20457870 		.ascii	" Expected \000"
 6128      65637465 
 6128      642000
 6129              		.section	.rodata.UnityStrFail,"a"
 6130              		.align	2
 6131              		.set	.LANCHOR1,. + 0
 6134              	UnityStrFail:
 6135 0000 4641494C 		.ascii	"FAIL\000"
ARM GAS  C:\Users\ASUS\AppData\Local\Temp\ccstHO0r.s 			page 167


 6135      00
 6136              		.section	.rodata.UnityStrGt,"a"
 6137              		.align	2
 6138              		.set	.LANCHOR11,. + 0
 6141              	UnityStrGt:
 6142 0000 20746F20 		.ascii	" to be greater than \000"
 6142      62652067 
 6142      72656174 
 6142      65722074 
 6142      68616E20 
 6143              		.section	.rodata.UnityStrIgnore,"a"
 6144              		.align	2
 6145              		.set	.LANCHOR24,. + 0
 6148              	UnityStrIgnore:
 6149 0000 49474E4F 		.ascii	"IGNORE\000"
 6149      524500
 6150              		.section	.rodata.UnityStrInf,"a"
 6151              		.align	2
 6154              	UnityStrInf:
 6155 0000 496E6669 		.ascii	"Infinity\000"
 6155      6E697479 
 6155      00
 6156              		.section	.rodata.UnityStrInvalidFloatTrait,"a"
 6157              		.align	2
 6158              		.set	.LANCHOR18,. + 0
 6161              	UnityStrInvalidFloatTrait:
 6162 0000 496E7661 		.ascii	"Invalid Float Trait\000"
 6162      6C696420 
 6162      466C6F61 
 6162      74205472 
 6162      61697400 
 6163              		.section	.rodata.UnityStrLt,"a"
 6164              		.align	2
 6165              		.set	.LANCHOR12,. + 0
 6168              	UnityStrLt:
 6169 0000 20746F20 		.ascii	" to be less than \000"
 6169      6265206C 
 6169      65737320 
 6169      7468616E 
 6169      2000
 6170              		.section	.rodata.UnityStrMemory,"a"
 6171              		.align	2
 6172              		.set	.LANCHOR21,. + 0
 6175              	UnityStrMemory:
 6176 0000 204D656D 		.ascii	" Memory Mismatch.\000"
 6176      6F727920 
 6176      4D69736D 
 6176      61746368 
 6176      2E00
 6177              		.section	.rodata.UnityStrNaN,"a"
 6178              		.align	2
 6181              	UnityStrNaN:
 6182 0000 4E614E00 		.ascii	"NaN\000"
 6183              		.section	.rodata.UnityStrNegInf,"a"
 6184              		.align	2
 6187              	UnityStrNegInf:
 6188 0000 4E656761 		.ascii	"Negative Infinity\000"
ARM GAS  C:\Users\ASUS\AppData\Local\Temp\ccstHO0r.s 			page 168


 6188      74697665 
 6188      20496E66 
 6188      696E6974 
 6188      7900
 6189              		.section	.rodata.UnityStrNot,"a"
 6190              		.align	2
 6191              		.set	.LANCHOR19,. + 0
 6194              	UnityStrNot:
 6195 0000 4E6F7420 		.ascii	"Not \000"
 6195      00
 6196              		.section	.rodata.UnityStrNotEqual,"a"
 6197              		.align	2
 6198              		.set	.LANCHOR14,. + 0
 6201              	UnityStrNotEqual:
 6202 0000 20746F20 		.ascii	" to be not equal to \000"
 6202      6265206E 
 6202      6F742065 
 6202      7175616C 
 6202      20746F20 
 6203              		.section	.rodata.UnityStrNull,"a"
 6204              		.align	2
 6205              		.set	.LANCHOR8,. + 0
 6208              	UnityStrNull:
 6209 0000 4E554C4C 		.ascii	"NULL\000"
 6209      00
 6210              		.section	.rodata.UnityStrNullPointerForActual,"a"
 6211              		.align	2
 6212              		.set	.LANCHOR6,. + 0
 6215              	UnityStrNullPointerForActual:
 6216 0000 20416374 		.ascii	" Actual pointer was NULL\000"
 6216      75616C20 
 6216      706F696E 
 6216      74657220 
 6216      77617320 
 6217              		.section	.rodata.UnityStrNullPointerForExpected,"a"
 6218              		.align	2
 6219              		.set	.LANCHOR5,. + 0
 6222              	UnityStrNullPointerForExpected:
 6223 0000 20457870 		.ascii	" Expected pointer to be NULL\000"
 6223      65637465 
 6223      6420706F 
 6223      696E7465 
 6223      7220746F 
 6224              		.section	.rodata.UnityStrOk,"a"
 6225              		.align	2
 6226              		.set	.LANCHOR29,. + 0
 6229              	UnityStrOk:
 6230 0000 4F4B00   		.ascii	"OK\000"
 6231              		.section	.rodata.UnityStrOrEqual,"a"
 6232              		.align	2
 6233              		.set	.LANCHOR13,. + 0
 6236              	UnityStrOrEqual:
 6237 0000 6F722065 		.ascii	"or equal to \000"
 6237      7175616C 
 6237      20746F20 
 6237      00
 6238              		.section	.rodata.UnityStrPass,"a"
ARM GAS  C:\Users\ASUS\AppData\Local\Temp\ccstHO0r.s 			page 169


 6239              		.align	2
 6240              		.set	.LANCHOR10,. + 0
 6243              	UnityStrPass:
 6244 0000 50415353 		.ascii	"PASS\000"
 6244      00
 6245              		.section	.rodata.UnityStrPointless,"a"
 6246              		.align	2
 6247              		.set	.LANCHOR15,. + 0
 6250              	UnityStrPointless:
 6251 0000 20596F75 		.ascii	" You Asked Me To Compare Nothing, Which Was Pointle"
 6251      2041736B 
 6251      6564204D 
 6251      6520546F 
 6251      20436F6D 
 6252 0033 73732E00 		.ascii	"ss.\000"
 6253              		.section	.rodata.UnityStrResultsFailures,"a"
 6254              		.align	2
 6255              		.set	.LANCHOR27,. + 0
 6258              	UnityStrResultsFailures:
 6259 0000 20466169 		.ascii	" Failures \000"
 6259      6C757265 
 6259      732000
 6260              		.section	.rodata.UnityStrResultsIgnored,"a"
 6261              		.align	2
 6262              		.set	.LANCHOR28,. + 0
 6265              	UnityStrResultsIgnored:
 6266 0000 2049676E 		.ascii	" Ignored \000"
 6266      6F726564 
 6266      2000
 6267              		.section	.rodata.UnityStrResultsTests,"a"
 6268              		.align	2
 6269              		.set	.LANCHOR26,. + 0
 6272              	UnityStrResultsTests:
 6273 0000 20546573 		.ascii	" Tests \000"
 6273      74732000 
 6274              		.section	.rodata.UnityStrSpacer,"a"
 6275              		.align	2
 6276              		.set	.LANCHOR2,. + 0
 6279              	UnityStrSpacer:
 6280 0000 2E2000   		.ascii	". \000"
 6281              		.section	.rodata.UnityStrWas,"a"
 6282              		.align	2
 6283              		.set	.LANCHOR9,. + 0
 6286              	UnityStrWas:
 6287 0000 20576173 		.ascii	" Was \000"
 6287      2000
 6288              		.text
 6289              	.Letext0:
 6290              		.file 2 "c:\\gnu-arm-embedded-toolchain\\gcc-arm-none-eabi-10-2020-q4-major\\arm-none-eabi\\includ
 6291              		.file 3 "Core/test/unity_internals.h"
 6292              		.file 4 "Core/Inc/main.h"
 6293              		.file 5 "c:\\gnu-arm-embedded-toolchain\\gcc-arm-none-eabi-10-2020-q4-major\\arm-none-eabi\\includ
 6294              		.file 6 "Core/test/unity.h"
ARM GAS  C:\Users\ASUS\AppData\Local\Temp\ccstHO0r.s 			page 170


DEFINED SYMBOLS
                            *ABS*:00000000 unity.c
C:\Users\ASUS\AppData\Local\Temp\ccstHO0r.s:18     .text.UnityFloatsWithin:00000000 $t
C:\Users\ASUS\AppData\Local\Temp\ccstHO0r.s:25     .text.UnityFloatsWithin:00000000 UnityFloatsWithin
C:\Users\ASUS\AppData\Local\Temp\ccstHO0r.s:138    .text.UnityFloatsWithin:000000bc $d
C:\Users\ASUS\AppData\Local\Temp\ccstHO0r.s:143    .text.UnityPrintNumberUnsigned:00000000 $t
C:\Users\ASUS\AppData\Local\Temp\ccstHO0r.s:150    .text.UnityPrintNumberUnsigned:00000000 UnityPrintNumberUnsigned
C:\Users\ASUS\AppData\Local\Temp\ccstHO0r.s:222    .text.UnityPrintNumberUnsigned:00000040 $d
C:\Users\ASUS\AppData\Local\Temp\ccstHO0r.s:227    .text.UnityPrintNumber:00000000 $t
C:\Users\ASUS\AppData\Local\Temp\ccstHO0r.s:234    .text.UnityPrintNumber:00000000 UnityPrintNumber
C:\Users\ASUS\AppData\Local\Temp\ccstHO0r.s:279    .text.UnityPrintNumberHex:00000000 $t
C:\Users\ASUS\AppData\Local\Temp\ccstHO0r.s:286    .text.UnityPrintNumberHex:00000000 UnityPrintNumberHex
C:\Users\ASUS\AppData\Local\Temp\ccstHO0r.s:362    .text.UnityPrintChar:00000000 $t
C:\Users\ASUS\AppData\Local\Temp\ccstHO0r.s:368    .text.UnityPrintChar:00000000 UnityPrintChar
C:\Users\ASUS\AppData\Local\Temp\ccstHO0r.s:446    .text.UnityPrint:00000000 $t
C:\Users\ASUS\AppData\Local\Temp\ccstHO0r.s:453    .text.UnityPrint:00000000 UnityPrint
C:\Users\ASUS\AppData\Local\Temp\ccstHO0r.s:498    .text.UnityTestResultsBegin:00000000 $t
C:\Users\ASUS\AppData\Local\Temp\ccstHO0r.s:504    .text.UnityTestResultsBegin:00000000 UnityTestResultsBegin
C:\Users\ASUS\AppData\Local\Temp\ccstHO0r.s:549    .text.UnityTestResultsBegin:0000002c $d
C:\Users\ASUS\AppData\Local\Temp\ccstHO0r.s:554    .text.UnityTestResultsFailBegin:00000000 $t
C:\Users\ASUS\AppData\Local\Temp\ccstHO0r.s:560    .text.UnityTestResultsFailBegin:00000000 UnityTestResultsFailBegin
C:\Users\ASUS\AppData\Local\Temp\ccstHO0r.s:594    .text.UnityTestResultsFailBegin:0000001c $d
C:\Users\ASUS\AppData\Local\Temp\ccstHO0r.s:600    .text.UnityAddMsgIfSpecified:00000000 $t
C:\Users\ASUS\AppData\Local\Temp\ccstHO0r.s:606    .text.UnityAddMsgIfSpecified:00000000 UnityAddMsgIfSpecified
C:\Users\ASUS\AppData\Local\Temp\ccstHO0r.s:676    .text.UnityAddMsgIfSpecified:00000040 $d
C:\Users\ASUS\AppData\Local\Temp\ccstHO0r.s:684    .text.UnityIsOneArrayNull:00000000 $t
C:\Users\ASUS\AppData\Local\Temp\ccstHO0r.s:690    .text.UnityIsOneArrayNull:00000000 UnityIsOneArrayNull
C:\Users\ASUS\AppData\Local\Temp\ccstHO0r.s:774    .text.UnityIsOneArrayNull:00000040 $d
C:\Users\ASUS\AppData\Local\Temp\ccstHO0r.s:780    .text.UnityPrintExpectedAndActualStrings:00000000 $t
C:\Users\ASUS\AppData\Local\Temp\ccstHO0r.s:786    .text.UnityPrintExpectedAndActualStrings:00000000 UnityPrintExpectedAndActualStrings
C:\Users\ASUS\AppData\Local\Temp\ccstHO0r.s:864    .text.UnityPrintExpectedAndActualStrings:0000004c $d
C:\Users\ASUS\AppData\Local\Temp\ccstHO0r.s:871    .text.UnityPrintLen:00000000 $t
C:\Users\ASUS\AppData\Local\Temp\ccstHO0r.s:878    .text.UnityPrintLen:00000000 UnityPrintLen
C:\Users\ASUS\AppData\Local\Temp\ccstHO0r.s:995    .text.UnityPrintExpectedAndActualStringsLen:00000000 $t
C:\Users\ASUS\AppData\Local\Temp\ccstHO0r.s:1001   .text.UnityPrintExpectedAndActualStringsLen:00000000 UnityPrintExpectedAndActualStringsLen
C:\Users\ASUS\AppData\Local\Temp\ccstHO0r.s:1082   .text.UnityPrintExpectedAndActualStringsLen:00000054 $d
C:\Users\ASUS\AppData\Local\Temp\ccstHO0r.s:1089   .text.UnityPrintNumberByStyle:00000000 $t
C:\Users\ASUS\AppData\Local\Temp\ccstHO0r.s:1096   .text.UnityPrintNumberByStyle:00000000 UnityPrintNumberByStyle
C:\Users\ASUS\AppData\Local\Temp\ccstHO0r.s:1229   .text.UnityPrintMask:00000000 $t
C:\Users\ASUS\AppData\Local\Temp\ccstHO0r.s:1236   .text.UnityPrintMask:00000000 UnityPrintMask
C:\Users\ASUS\AppData\Local\Temp\ccstHO0r.s:1312   .rodata.UnityPrintFloat.str1.4:00000000 $d
C:\Users\ASUS\AppData\Local\Temp\ccstHO0r.s:1322   .text.UnityPrintFloat:00000000 $t
C:\Users\ASUS\AppData\Local\Temp\ccstHO0r.s:1329   .text.UnityPrintFloat:00000000 UnityPrintFloat
C:\Users\ASUS\AppData\Local\Temp\ccstHO0r.s:1870   .text.UnityPrintFloat:00000278 $d
C:\Users\ASUS\AppData\Local\Temp\ccstHO0r.s:1888   .text.UnityConcludeTest:00000000 $t
C:\Users\ASUS\AppData\Local\Temp\ccstHO0r.s:1895   .text.UnityConcludeTest:00000000 UnityConcludeTest
C:\Users\ASUS\AppData\Local\Temp\ccstHO0r.s:1968   .text.UnityConcludeTest:00000044 $d
C:\Users\ASUS\AppData\Local\Temp\ccstHO0r.s:1974   .text.UnityAssertBits:00000000 $t
C:\Users\ASUS\AppData\Local\Temp\ccstHO0r.s:1981   .text.UnityAssertBits:00000000 UnityAssertBits
C:\Users\ASUS\AppData\Local\Temp\ccstHO0r.s:2077   .text.UnityAssertBits:0000005c $d
C:\Users\ASUS\AppData\Local\Temp\ccstHO0r.s:2085   .text.UnityAssertEqualNumber:00000000 $t
C:\Users\ASUS\AppData\Local\Temp\ccstHO0r.s:2092   .text.UnityAssertEqualNumber:00000000 UnityAssertEqualNumber
C:\Users\ASUS\AppData\Local\Temp\ccstHO0r.s:2184   .text.UnityAssertEqualNumber:0000005c $d
C:\Users\ASUS\AppData\Local\Temp\ccstHO0r.s:2192   .text.UnityAssertGreaterOrLessOrEqualNumber:00000000 $t
C:\Users\ASUS\AppData\Local\Temp\ccstHO0r.s:2199   .text.UnityAssertGreaterOrLessOrEqualNumber:00000000 UnityAssertGreaterOrLessOrEqualNumber
C:\Users\ASUS\AppData\Local\Temp\ccstHO0r.s:2402   .text.UnityAssertGreaterOrLessOrEqualNumber:000000d4 $d
C:\Users\ASUS\AppData\Local\Temp\ccstHO0r.s:2413   .text.UnityAssertEqualIntArray:00000000 $t
ARM GAS  C:\Users\ASUS\AppData\Local\Temp\ccstHO0r.s 			page 171


C:\Users\ASUS\AppData\Local\Temp\ccstHO0r.s:2420   .text.UnityAssertEqualIntArray:00000000 UnityAssertEqualIntArray
C:\Users\ASUS\AppData\Local\Temp\ccstHO0r.s:2753   .text.UnityAssertEqualIntArray:00000130 $d
C:\Users\ASUS\AppData\Local\Temp\ccstHO0r.s:2763   .text.UnityAssertWithinFloatArray:00000000 $t
C:\Users\ASUS\AppData\Local\Temp\ccstHO0r.s:2770   .text.UnityAssertWithinFloatArray:00000000 UnityAssertWithinFloatArray
C:\Users\ASUS\AppData\Local\Temp\ccstHO0r.s:3064   .text.UnityAssertWithinFloatArray:0000013c $d
C:\Users\ASUS\AppData\Local\Temp\ccstHO0r.s:3076   .text.UnityAssertFloatsWithin:00000000 $t
C:\Users\ASUS\AppData\Local\Temp\ccstHO0r.s:3083   .text.UnityAssertFloatsWithin:00000000 UnityAssertFloatsWithin
C:\Users\ASUS\AppData\Local\Temp\ccstHO0r.s:3186   .text.UnityAssertFloatsWithin:00000068 $d
C:\Users\ASUS\AppData\Local\Temp\ccstHO0r.s:3194   .text.UnityAssertFloatsNotWithin:00000000 $t
C:\Users\ASUS\AppData\Local\Temp\ccstHO0r.s:3201   .text.UnityAssertFloatsNotWithin:00000000 UnityAssertFloatsNotWithin
C:\Users\ASUS\AppData\Local\Temp\ccstHO0r.s:3302   .text.UnityAssertFloatsNotWithin:00000068 $d
C:\Users\ASUS\AppData\Local\Temp\ccstHO0r.s:3310   .text.UnityAssertGreaterOrLessFloat:00000000 $t
C:\Users\ASUS\AppData\Local\Temp\ccstHO0r.s:3317   .text.UnityAssertGreaterOrLessFloat:00000000 UnityAssertGreaterOrLessFloat
C:\Users\ASUS\AppData\Local\Temp\ccstHO0r.s:3503   .text.UnityAssertGreaterOrLessFloat:000000d4 $d
C:\Users\ASUS\AppData\Local\Temp\ccstHO0r.s:3514   .text.UnityAssertFloatSpecial:00000000 $t
C:\Users\ASUS\AppData\Local\Temp\ccstHO0r.s:3521   .text.UnityAssertFloatSpecial:00000000 UnityAssertFloatSpecial
C:\Users\ASUS\AppData\Local\Temp\ccstHO0r.s:3585   .text.UnityAssertFloatSpecial:00000040 $d
C:\Users\ASUS\AppData\Local\Temp\ccstHO0r.s:3594   .text.UnityAssertFloatSpecial:00000048 $t
C:\Users\ASUS\AppData\Local\Temp\ccstHO0r.s:3796   .text.UnityAssertFloatSpecial:00000130 $d
C:\Users\ASUS\AppData\Local\Temp\ccstHO0r.s:3808   .text.UnityAssertNumbersWithin:00000000 $t
C:\Users\ASUS\AppData\Local\Temp\ccstHO0r.s:3815   .text.UnityAssertNumbersWithin:00000000 UnityAssertNumbersWithin
C:\Users\ASUS\AppData\Local\Temp\ccstHO0r.s:3984   .text.UnityAssertNumbersWithin:000000bc $d
C:\Users\ASUS\AppData\Local\Temp\ccstHO0r.s:3993   .text.UnityAssertNumbersArrayWithin:00000000 $t
C:\Users\ASUS\AppData\Local\Temp\ccstHO0r.s:4000   .text.UnityAssertNumbersArrayWithin:00000000 UnityAssertNumbersArrayWithin
C:\Users\ASUS\AppData\Local\Temp\ccstHO0r.s:4445   .text.UnityAssertNumbersArrayWithin:000001b8 $d
C:\Users\ASUS\AppData\Local\Temp\ccstHO0r.s:4456   .text.UnityAssertEqualString:00000000 $t
C:\Users\ASUS\AppData\Local\Temp\ccstHO0r.s:4463   .text.UnityAssertEqualString:00000000 UnityAssertEqualString
C:\Users\ASUS\AppData\Local\Temp\ccstHO0r.s:4601   .text.UnityAssertEqualString:00000078 $d
C:\Users\ASUS\AppData\Local\Temp\ccstHO0r.s:4607   .text.UnityAssertEqualStringLen:00000000 $t
C:\Users\ASUS\AppData\Local\Temp\ccstHO0r.s:4614   .text.UnityAssertEqualStringLen:00000000 UnityAssertEqualStringLen
C:\Users\ASUS\AppData\Local\Temp\ccstHO0r.s:4760   .text.UnityAssertEqualStringLen:00000080 $d
C:\Users\ASUS\AppData\Local\Temp\ccstHO0r.s:4766   .text.UnityAssertEqualStringArray:00000000 $t
C:\Users\ASUS\AppData\Local\Temp\ccstHO0r.s:4773   .text.UnityAssertEqualStringArray:00000000 UnityAssertEqualStringArray
C:\Users\ASUS\AppData\Local\Temp\ccstHO0r.s:5045   .text.UnityAssertEqualStringArray:00000100 $d
C:\Users\ASUS\AppData\Local\Temp\ccstHO0r.s:5053   .text.UnityAssertEqualMemory:00000000 $t
C:\Users\ASUS\AppData\Local\Temp\ccstHO0r.s:5060   .text.UnityAssertEqualMemory:00000000 UnityAssertEqualMemory
C:\Users\ASUS\AppData\Local\Temp\ccstHO0r.s:5336   .text.UnityAssertEqualMemory:00000114 $d
C:\Users\ASUS\AppData\Local\Temp\ccstHO0r.s:5348   .text.UnityNumToPtr:00000000 $t
C:\Users\ASUS\AppData\Local\Temp\ccstHO0r.s:5355   .text.UnityNumToPtr:00000000 UnityNumToPtr
C:\Users\ASUS\AppData\Local\Temp\ccstHO0r.s:5399   .text.UnityNumToPtr:0000001c $d
C:\Users\ASUS\AppData\Local\Temp\ccstHO0r.s:5404   .text.UnityFloatToPtr:00000000 $t
C:\Users\ASUS\AppData\Local\Temp\ccstHO0r.s:5411   .text.UnityFloatToPtr:00000000 UnityFloatToPtr
C:\Users\ASUS\AppData\Local\Temp\ccstHO0r.s:5429   .text.UnityFloatToPtr:00000008 $d
C:\Users\ASUS\AppData\Local\Temp\ccstHO0r.s:5434   .text.UnityFail:00000000 $t
C:\Users\ASUS\AppData\Local\Temp\ccstHO0r.s:5441   .text.UnityFail:00000000 UnityFail
C:\Users\ASUS\AppData\Local\Temp\ccstHO0r.s:5560   .text.UnityFail:00000078 $d
C:\Users\ASUS\AppData\Local\Temp\ccstHO0r.s:5570   .text.UnityIgnore:00000000 $t
C:\Users\ASUS\AppData\Local\Temp\ccstHO0r.s:5577   .text.UnityIgnore:00000000 UnityIgnore
C:\Users\ASUS\AppData\Local\Temp\ccstHO0r.s:5653   .text.UnityIgnore:00000048 $d
C:\Users\ASUS\AppData\Local\Temp\ccstHO0r.s:5660   .rodata.UnityMessage.str1.4:00000000 $d
C:\Users\ASUS\AppData\Local\Temp\ccstHO0r.s:5664   .text.UnityMessage:00000000 $t
C:\Users\ASUS\AppData\Local\Temp\ccstHO0r.s:5671   .text.UnityMessage:00000000 UnityMessage
C:\Users\ASUS\AppData\Local\Temp\ccstHO0r.s:5723   .text.UnityMessage:00000030 $d
C:\Users\ASUS\AppData\Local\Temp\ccstHO0r.s:5729   .text.UnityDefaultTestRun:00000000 $t
C:\Users\ASUS\AppData\Local\Temp\ccstHO0r.s:5736   .text.UnityDefaultTestRun:00000000 UnityDefaultTestRun
C:\Users\ASUS\AppData\Local\Temp\ccstHO0r.s:5825   .text.UnityDefaultTestRun:00000044 $d
C:\Users\ASUS\AppData\Local\Temp\ccstHO0r.s:5831   .text.UnitySetTestFile:00000000 $t
ARM GAS  C:\Users\ASUS\AppData\Local\Temp\ccstHO0r.s 			page 172


C:\Users\ASUS\AppData\Local\Temp\ccstHO0r.s:5838   .text.UnitySetTestFile:00000000 UnitySetTestFile
C:\Users\ASUS\AppData\Local\Temp\ccstHO0r.s:5855   .text.UnitySetTestFile:00000008 $d
C:\Users\ASUS\AppData\Local\Temp\ccstHO0r.s:5860   .text.UnityBegin:00000000 $t
C:\Users\ASUS\AppData\Local\Temp\ccstHO0r.s:5867   .text.UnityBegin:00000000 UnityBegin
C:\Users\ASUS\AppData\Local\Temp\ccstHO0r.s:5913   .text.UnityBegin:0000001c $d
C:\Users\ASUS\AppData\Local\Temp\ccstHO0r.s:5918   .text.UnityEnd:00000000 $t
C:\Users\ASUS\AppData\Local\Temp\ccstHO0r.s:5925   .text.UnityEnd:00000000 UnityEnd
C:\Users\ASUS\AppData\Local\Temp\ccstHO0r.s:6009   .text.UnityEnd:00000060 $d
C:\Users\ASUS\AppData\Local\Temp\ccstHO0r.s:6102   .rodata.UnityStrErr64:00000000 UnityStrErr64
C:\Users\ASUS\AppData\Local\Temp\ccstHO0r.s:6108   .rodata.UnityStrErrDouble:00000000 UnityStrErrDouble
C:\Users\ASUS\AppData\Local\Temp\ccstHO0r.s:6114   .rodata.UnityStrErrFloat:00000000 UnityStrErrFloat
C:\Users\ASUS\AppData\Local\Temp\ccstHO0r.s:6120   .rodata.UnityStrErrShorthand:00000000 UnityStrErrShorthand
C:\Users\ASUS\AppData\Local\Temp\ccstHO0r.s:6148   .rodata.UnityStrIgnore:00000000 UnityStrIgnore
C:\Users\ASUS\AppData\Local\Temp\ccstHO0r.s:6134   .rodata.UnityStrFail:00000000 UnityStrFail
C:\Users\ASUS\AppData\Local\Temp\ccstHO0r.s:6243   .rodata.UnityStrPass:00000000 UnityStrPass
C:\Users\ASUS\AppData\Local\Temp\ccstHO0r.s:6229   .rodata.UnityStrOk:00000000 UnityStrOk
C:\Users\ASUS\AppData\Local\Temp\ccstHO0r.s:6041   .bss.Unity:00000000 Unity
C:\Users\ASUS\AppData\Local\Temp\ccstHO0r.s:6029   .rodata:00000000 $d
C:\Users\ASUS\AppData\Local\Temp\ccstHO0r.s:6154   .rodata.UnityStrInf:00000000 UnityStrInf
C:\Users\ASUS\AppData\Local\Temp\ccstHO0r.s:6187   .rodata.UnityStrNegInf:00000000 UnityStrNegInf
C:\Users\ASUS\AppData\Local\Temp\ccstHO0r.s:6181   .rodata.UnityStrNaN:00000000 UnityStrNaN
C:\Users\ASUS\AppData\Local\Temp\ccstHO0r.s:6075   .rodata.UnityStrDet:00000000 UnityStrDet
C:\Users\ASUS\AppData\Local\Temp\ccstHO0r.s:6037   .bss.Unity:00000000 $d
C:\Users\ASUS\AppData\Local\Temp\ccstHO0r.s:6044   .bss.UnityQuickCompare:00000000 $d
C:\Users\ASUS\AppData\Local\Temp\ccstHO0r.s:6048   .bss.UnityQuickCompare:00000000 UnityQuickCompare
C:\Users\ASUS\AppData\Local\Temp\ccstHO0r.s:6051   .rodata.UnityStrBreaker:00000000 $d
C:\Users\ASUS\AppData\Local\Temp\ccstHO0r.s:6055   .rodata.UnityStrBreaker:00000000 UnityStrBreaker
C:\Users\ASUS\AppData\Local\Temp\ccstHO0r.s:6058   .rodata.UnityStrByte:00000000 $d
C:\Users\ASUS\AppData\Local\Temp\ccstHO0r.s:6062   .rodata.UnityStrByte:00000000 UnityStrByte
C:\Users\ASUS\AppData\Local\Temp\ccstHO0r.s:6065   .rodata.UnityStrDelta:00000000 $d
C:\Users\ASUS\AppData\Local\Temp\ccstHO0r.s:6069   .rodata.UnityStrDelta:00000000 UnityStrDelta
C:\Users\ASUS\AppData\Local\Temp\ccstHO0r.s:6072   .rodata.UnityStrDet:00000000 $d
C:\Users\ASUS\AppData\Local\Temp\ccstHO0r.s:6078   .rodata.UnityStrDetail1Name:00000000 $d
C:\Users\ASUS\AppData\Local\Temp\ccstHO0r.s:6082   .rodata.UnityStrDetail1Name:00000000 UnityStrDetail1Name
C:\Users\ASUS\AppData\Local\Temp\ccstHO0r.s:6085   .rodata.UnityStrDetail2Name:00000000 $d
C:\Users\ASUS\AppData\Local\Temp\ccstHO0r.s:6089   .rodata.UnityStrDetail2Name:00000000 UnityStrDetail2Name
C:\Users\ASUS\AppData\Local\Temp\ccstHO0r.s:6092   .rodata.UnityStrElement:00000000 $d
C:\Users\ASUS\AppData\Local\Temp\ccstHO0r.s:6096   .rodata.UnityStrElement:00000000 UnityStrElement
C:\Users\ASUS\AppData\Local\Temp\ccstHO0r.s:6099   .rodata.UnityStrErr64:00000000 $d
C:\Users\ASUS\AppData\Local\Temp\ccstHO0r.s:6105   .rodata.UnityStrErrDouble:00000000 $d
C:\Users\ASUS\AppData\Local\Temp\ccstHO0r.s:6111   .rodata.UnityStrErrFloat:00000000 $d
C:\Users\ASUS\AppData\Local\Temp\ccstHO0r.s:6117   .rodata.UnityStrErrShorthand:00000000 $d
C:\Users\ASUS\AppData\Local\Temp\ccstHO0r.s:6123   .rodata.UnityStrExpected:00000000 $d
C:\Users\ASUS\AppData\Local\Temp\ccstHO0r.s:6127   .rodata.UnityStrExpected:00000000 UnityStrExpected
C:\Users\ASUS\AppData\Local\Temp\ccstHO0r.s:6130   .rodata.UnityStrFail:00000000 $d
C:\Users\ASUS\AppData\Local\Temp\ccstHO0r.s:6137   .rodata.UnityStrGt:00000000 $d
C:\Users\ASUS\AppData\Local\Temp\ccstHO0r.s:6141   .rodata.UnityStrGt:00000000 UnityStrGt
C:\Users\ASUS\AppData\Local\Temp\ccstHO0r.s:6144   .rodata.UnityStrIgnore:00000000 $d
C:\Users\ASUS\AppData\Local\Temp\ccstHO0r.s:6151   .rodata.UnityStrInf:00000000 $d
C:\Users\ASUS\AppData\Local\Temp\ccstHO0r.s:6157   .rodata.UnityStrInvalidFloatTrait:00000000 $d
C:\Users\ASUS\AppData\Local\Temp\ccstHO0r.s:6161   .rodata.UnityStrInvalidFloatTrait:00000000 UnityStrInvalidFloatTrait
C:\Users\ASUS\AppData\Local\Temp\ccstHO0r.s:6164   .rodata.UnityStrLt:00000000 $d
C:\Users\ASUS\AppData\Local\Temp\ccstHO0r.s:6168   .rodata.UnityStrLt:00000000 UnityStrLt
C:\Users\ASUS\AppData\Local\Temp\ccstHO0r.s:6171   .rodata.UnityStrMemory:00000000 $d
C:\Users\ASUS\AppData\Local\Temp\ccstHO0r.s:6175   .rodata.UnityStrMemory:00000000 UnityStrMemory
C:\Users\ASUS\AppData\Local\Temp\ccstHO0r.s:6178   .rodata.UnityStrNaN:00000000 $d
C:\Users\ASUS\AppData\Local\Temp\ccstHO0r.s:6184   .rodata.UnityStrNegInf:00000000 $d
ARM GAS  C:\Users\ASUS\AppData\Local\Temp\ccstHO0r.s 			page 173


C:\Users\ASUS\AppData\Local\Temp\ccstHO0r.s:6190   .rodata.UnityStrNot:00000000 $d
C:\Users\ASUS\AppData\Local\Temp\ccstHO0r.s:6194   .rodata.UnityStrNot:00000000 UnityStrNot
C:\Users\ASUS\AppData\Local\Temp\ccstHO0r.s:6197   .rodata.UnityStrNotEqual:00000000 $d
C:\Users\ASUS\AppData\Local\Temp\ccstHO0r.s:6201   .rodata.UnityStrNotEqual:00000000 UnityStrNotEqual
C:\Users\ASUS\AppData\Local\Temp\ccstHO0r.s:6204   .rodata.UnityStrNull:00000000 $d
C:\Users\ASUS\AppData\Local\Temp\ccstHO0r.s:6208   .rodata.UnityStrNull:00000000 UnityStrNull
C:\Users\ASUS\AppData\Local\Temp\ccstHO0r.s:6211   .rodata.UnityStrNullPointerForActual:00000000 $d
C:\Users\ASUS\AppData\Local\Temp\ccstHO0r.s:6215   .rodata.UnityStrNullPointerForActual:00000000 UnityStrNullPointerForActual
C:\Users\ASUS\AppData\Local\Temp\ccstHO0r.s:6218   .rodata.UnityStrNullPointerForExpected:00000000 $d
C:\Users\ASUS\AppData\Local\Temp\ccstHO0r.s:6222   .rodata.UnityStrNullPointerForExpected:00000000 UnityStrNullPointerForExpected
C:\Users\ASUS\AppData\Local\Temp\ccstHO0r.s:6225   .rodata.UnityStrOk:00000000 $d
C:\Users\ASUS\AppData\Local\Temp\ccstHO0r.s:6232   .rodata.UnityStrOrEqual:00000000 $d
C:\Users\ASUS\AppData\Local\Temp\ccstHO0r.s:6236   .rodata.UnityStrOrEqual:00000000 UnityStrOrEqual
C:\Users\ASUS\AppData\Local\Temp\ccstHO0r.s:6239   .rodata.UnityStrPass:00000000 $d
C:\Users\ASUS\AppData\Local\Temp\ccstHO0r.s:6246   .rodata.UnityStrPointless:00000000 $d
C:\Users\ASUS\AppData\Local\Temp\ccstHO0r.s:6250   .rodata.UnityStrPointless:00000000 UnityStrPointless
C:\Users\ASUS\AppData\Local\Temp\ccstHO0r.s:6254   .rodata.UnityStrResultsFailures:00000000 $d
C:\Users\ASUS\AppData\Local\Temp\ccstHO0r.s:6258   .rodata.UnityStrResultsFailures:00000000 UnityStrResultsFailures
C:\Users\ASUS\AppData\Local\Temp\ccstHO0r.s:6261   .rodata.UnityStrResultsIgnored:00000000 $d
C:\Users\ASUS\AppData\Local\Temp\ccstHO0r.s:6265   .rodata.UnityStrResultsIgnored:00000000 UnityStrResultsIgnored
C:\Users\ASUS\AppData\Local\Temp\ccstHO0r.s:6268   .rodata.UnityStrResultsTests:00000000 $d
C:\Users\ASUS\AppData\Local\Temp\ccstHO0r.s:6272   .rodata.UnityStrResultsTests:00000000 UnityStrResultsTests
C:\Users\ASUS\AppData\Local\Temp\ccstHO0r.s:6275   .rodata.UnityStrSpacer:00000000 $d
C:\Users\ASUS\AppData\Local\Temp\ccstHO0r.s:6279   .rodata.UnityStrSpacer:00000000 UnityStrSpacer
C:\Users\ASUS\AppData\Local\Temp\ccstHO0r.s:6282   .rodata.UnityStrWas:00000000 $d
C:\Users\ASUS\AppData\Local\Temp\ccstHO0r.s:6286   .rodata.UnityStrWas:00000000 UnityStrWas

UNDEFINED SYMBOLS
uart_sendchar
longjmp
setjmp
setUp
tearDown
